Archive member included because of file (symbol)

contiki-z1.a(contiki-z1-plat)
                              obj_z1/contiki-z1-main.o (init_platform)
contiki-z1.a(msp430.o)        obj_z1/contiki-z1-main.o (splhigh_)
contiki-z1.a(leds.o)          obj_z1/contiki-z1-main.o (leds_init)
contiki-z1.a(watchdog.o)      obj_z1/contiki-z1-main.o (watchdog_start)
contiki-z1.a(xmem.o)          obj_z1/contiki-z1-main.o (xmem_init)
contiki-z1.a(spi.o)           contiki-z1.a(xmem.o) (spi_init)
contiki-z1.a(cc2420.o)        obj_z1/contiki-z1-main.o (cc2420_set_pan_addr)
contiki-z1.a(cc2420-arch.o)   contiki-z1.a(cc2420.o) (cc2420_arch_init)
contiki-z1.a(node-id.o)       obj_z1/contiki-z1-main.o (node_id_restore)
contiki-z1.a(sensors.o)       contiki-z1.a(contiki-z1-plat) (sensors_process)
contiki-z1.a(uart0.o)         obj_z1/contiki-z1-main.o (uart0_active)
contiki-z1.a(uart0-putchar.o)
                              udp-malicious-client-controller-aware-version-attack.co (putchar)
contiki-z1.a(z1-sensors.o)    contiki-z1.a(sensors.o) (sensors_flags)
contiki-z1.a(adxl345.o)       obj_z1/contiki-z1-main.o (adxl345)
contiki-z1.a(tmp102.o)        contiki-z1.a(z1-sensors.o) (tmp102)
contiki-z1.a(clock.o)         obj_z1/contiki-z1-main.o (clock_init)
contiki-z1.a(leds-arch.o)     contiki-z1.a(leds.o) (leds_arch_init)
contiki-z1.a(rtimer-arch.o)   obj_z1/contiki-z1-main.o (rtimer_arch_now)
contiki-z1.a(ctimer.o)        obj_z1/contiki-z1-main.o (ctimer_init)
contiki-z1.a(autostart.o)     obj_z1/contiki-z1-main.o (autostart_start)
contiki-z1.a(energest.o)      obj_z1/contiki-z1-main.o (energest_init)
contiki-z1.a(etimer.o)        contiki-z1.a(clock.o) (etimer_request_poll)
contiki-z1.a(process.o)       udp-malicious-client-controller-aware-version-attack.co (process_current)
contiki-z1.a(rtimer.o)        obj_z1/contiki-z1-main.o (rtimer_init)
contiki-z1.a(timer.o)         contiki-z1.a(adxl345.o) (timer_set)
contiki-z1.a(list.o)          contiki-z1.a(ctimer.o) (list_init)
contiki-z1.a(random.o)        obj_z1/contiki-z1-main.o (random_init)
contiki-z1.a(uip-icmp6.o)     udp-malicious-client-controller-aware-version-attack.co (uip_icmp6_register_input_handler)
contiki-z1.a(uip-ds6.o)       udp-malicious-client-controller-aware-version-attack.co (uip_ds6_if)
contiki-z1.a(uip-ds6-route.o)
                              contiki-z1.a(uip-ds6.o) (uip_ds6_route_init)
contiki-z1.a(uip6.o)          udp-malicious-client-controller-aware-version-attack.co (uip_aligned_buf)
contiki-z1.a(uip-ds6-nbr.o)   contiki-z1.a(uip-ds6.o) (uip_ds6_neighbors_init)
contiki-z1.a(uip-nd6.o)       contiki-z1.a(uip6.o) (uip_nd6_init)
contiki-z1.a(sicslowpan.o)    obj_z1/contiki-z1-main.o (sicslowpan_driver)
contiki-z1.a(uip-udp-packet.)
                              udp-malicious-client-controller-aware-version-attack.co (uip_udp_packet_sendto)
contiki-z1.a(tcpip.o)         contiki-z1.a(sicslowpan.o) (tcpip_set_outputfunc)
contiki-z1.a(uip-debug.o)     contiki-z1.a(uip-ds6-route.o) (uip_debug_ipaddr_print)
contiki-z1.a(rpl-timers.o)    udp-malicious-client-controller-aware-version-attack.co (rpl_reset_dio_timer)
contiki-z1.a(rpl-ext-header.)
                              contiki-z1.a(uip6.o) (rpl_verify_hbh_header)
contiki-z1.a(rpl.o)           udp-malicious-client-controller-aware-version-attack.co (rpl_get_mode)
contiki-z1.a(rpl-dag.o)       contiki-z1.a(rpl-timers.o) (rpl_parents)
contiki-z1.a(queuebuf.o)      obj_z1/contiki-z1-main.o (queuebuf_init)
contiki-z1.a(nbr-table.o)     contiki-z1.a(uip-ds6-route.o) (nbr_table_register)
contiki-z1.a(packetbuf.o)     contiki-z1.a(cc2420.o) (packetbuf_set_datalen)
contiki-z1.a(linkaddr.o)      obj_z1/contiki-z1-main.o (linkaddr_copy)
contiki-z1.a(link-stats.o)    contiki-z1.a(rpl-dag.o) (link_stats_from_lladdr)
contiki-z1.a(framer-802154.o)
                              contiki-z1.a(sicslowpan.o) (framer_802154)
contiki-z1.a(csma.o)          udp-malicious-client-controller-aware-version-attack.co (csma_driver)
contiki-z1.a(frame802154.o)   contiki-z1.a(framer-802154.o) (frame802154_get_pan_id)
contiki-z1.a(mac.o)           contiki-z1.a(csma.o) (mac_call_sent_callback)
contiki-z1.a(nullrdc.o)       obj_z1/contiki-z1-main.o (nullrdc_driver)
contiki-z1.a(nullsec.o)       obj_z1/contiki-z1-main.o (nullsec_driver)
contiki-z1.a(i2cmaster.o)     contiki-z1.a(adxl345.o) (i2c_receiveinit)
contiki-z1.a(button-sensor.o)
                              contiki-z1.a(z1-sensors.o) (button_sensor)
contiki-z1.a(stimer.o)        contiki-z1.a(uip-ds6.o) (stimer_set)
contiki-z1.a(memb.o)          contiki-z1.a(uip-ds6-route.o) (memb_init)
contiki-z1.a(rpl-nbr-policy.)
                              contiki-z1.a(nbr-table.o) (rpl_nbr_policy_find_removable)
contiki-z1.a(rpl-mrhof.o)     contiki-z1.a(rpl-dag.o) (rpl_mrhof)
contiki-z1.a(mac-sequence.o)  contiki-z1.a(nullrdc.o) (mac_sequence_is_duplicate)
/opt/msp430-47-expr/bin/../lib/gcc/msp430/4.7.0/mcpu-430x/mmpy-16/msr20/mc20/libgcc.a(_mulsi3.o)
                              contiki-z1.a(rpl-timers.o) (__mulsi3)
/opt/msp430-47-expr/bin/../lib/gcc/msp430/4.7.0/mcpu-430x/mmpy-16/msr20/mc20/libgcc.a(_udivmod16.o)
                              udp-malicious-client-controller-aware-version-attack.co (__udivhi3)
/opt/msp430-47-expr/bin/../lib/gcc/msp430/4.7.0/mcpu-430x/mmpy-16/msr20/mc20/libgcc.a(_divmod16.o)
                              contiki-z1.a(tmp102.o) (__divhi3)
/opt/msp430-47-expr/bin/../lib/gcc/msp430/4.7.0/mcpu-430x/mmpy-16/msr20/mc20/libgcc.a(_udivmod32.o)
                              obj_z1/contiki-z1-main.o (__udivsi3)
/opt/msp430-47-expr/bin/../lib/gcc/msp430/4.7.0/mcpu-430x/mmpy-16/msr20/mc20/libgcc.a(_divmod32.o)
                              contiki-z1.a(link-stats.o) (__divsi3)
/opt/msp430-47-expr/bin/../lib/gcc/msp430/4.7.0/../../../../msp430/lib/mcpu-430x/mmpy-16/msr20/mc20/libc.a(printf.o)
                              udp-malicious-client-controller-aware-version-attack.co (printf)
/opt/msp430-47-expr/bin/../lib/gcc/msp430/4.7.0/../../../../msp430/lib/mcpu-430x/mmpy-16/msr20/mc20/libc.a(sprintf.o)
                              udp-malicious-client-controller-aware-version-attack.co (sprintf)
/opt/msp430-47-expr/bin/../lib/gcc/msp430/4.7.0/../../../../msp430/lib/mcpu-430x/mmpy-16/msr20/mc20/libc.a(vuprintf.o)
                              /opt/msp430-47-expr/bin/../lib/gcc/msp430/4.7.0/../../../../msp430/lib/mcpu-430x/mmpy-16/msr20/mc20/libc.a(printf.o) (vuprintf)
/opt/msp430-47-expr/bin/../lib/gcc/msp430/4.7.0/../../../../msp430/lib/mcpu-430x/mmpy-16/msr20/mc20/libc.a(puts.o)
                              udp-malicious-client-controller-aware-version-attack.co (puts)
/opt/msp430-47-expr/bin/../lib/gcc/msp430/4.7.0/../../../../msp430/lib/mcpu-430x/mmpy-16/msr20/mc20/libc.a(rand.o)
                              contiki-z1.a(random.o) (rand)
/opt/msp430-47-expr/bin/../lib/gcc/msp430/4.7.0/../../../../msp430/lib/mcpu-430x/mmpy-16/msr20/mc20/libc.a(strncmp.o)
                              contiki-z1.a(sensors.o) (strncmp)
/opt/msp430-47-expr/bin/../lib/gcc/msp430/4.7.0/../../../../msp430/lib/mcpu-430x/mmpy-16/msr20/mc20/libc.a(memcmp.o)
                              udp-malicious-client-controller-aware-version-attack.co (memcmp)
/opt/msp430-47-expr/bin/../lib/gcc/msp430/4.7.0/../../../../msp430/lib/mcpu-430x/mmpy-16/msr20/mc20/libc.a(strcpy.o)
                              udp-malicious-client-controller-aware-version-attack.co (strcpy)
/opt/msp430-47-expr/bin/../lib/gcc/msp430/4.7.0/../../../../msp430/lib/mcpu-430x/mmpy-16/msr20/mc20/libc.a(memcpy.o)
                              udp-malicious-client-controller-aware-version-attack.co (memcpy)
/opt/msp430-47-expr/bin/../lib/gcc/msp430/4.7.0/../../../../msp430/lib/mcpu-430x/mmpy-16/msr20/mc20/libc.a(memmove.o)
                              contiki-z1.a(uip-icmp6.o) (memmove)
/opt/msp430-47-expr/bin/../lib/gcc/msp430/4.7.0/../../../../msp430/lib/mcpu-430x/mmpy-16/msr20/mc20/libc.a(memset.o)
                              udp-malicious-client-controller-aware-version-attack.co (memset)
/opt/msp430-47-expr/bin/../lib/gcc/msp430/4.7.0/../../../../msp430/lib/mcpu-430x/mmpy-16/msr20/mc20/libc.a(strcat.o)
                              udp-malicious-client-controller-aware-version-attack.co (strcat)
/opt/msp430-47-expr/bin/../lib/gcc/msp430/4.7.0/mcpu-430x/mmpy-16/msr20/mc20/libgcc.a(_udivmod64.o)
                              /opt/msp430-47-expr/bin/../lib/gcc/msp430/4.7.0/../../../../msp430/lib/mcpu-430x/mmpy-16/msr20/mc20/libc.a(vuprintf.o) (__udivdi3)
/opt/msp430-47-expr/bin/../lib/gcc/msp430/4.7.0/mcpu-430x/mmpy-16/msr20/mc20/libcrt0.a(_reset_vector__.o)
                              /opt/msp430-47-expr/bin/../lib/gcc/msp430/4.7.0/mcpu-430x/mmpy-16/msr20/mc20/crt0ivtbl32.o (_reset_vector__)
/opt/msp430-47-expr/bin/../lib/gcc/msp430/4.7.0/mcpu-430x/mmpy-16/msr20/mc20/libcrt0.a(__watchdog_support.o)
                              /opt/msp430-47-expr/bin/../lib/gcc/msp430/4.7.0/mcpu-430x/mmpy-16/msr20/mc20/libcrt0.a(_reset_vector__.o) (__watchdog_support)
/opt/msp430-47-expr/bin/../lib/gcc/msp430/4.7.0/mcpu-430x/mmpy-16/msr20/mc20/libcrt0.a(__init_stack.o)
                              /opt/msp430-47-expr/bin/../lib/gcc/msp430/4.7.0/mcpu-430x/mmpy-16/msr20/mc20/libcrt0.a(_reset_vector__.o) (__init_stack)
/opt/msp430-47-expr/bin/../lib/gcc/msp430/4.7.0/mcpu-430x/mmpy-16/msr20/mc20/libcrt0.a(__low_level_init.o)
                              /opt/msp430-47-expr/bin/../lib/gcc/msp430/4.7.0/mcpu-430x/mmpy-16/msr20/mc20/libcrt0.a(_reset_vector__.o) (__low_level_init)
/opt/msp430-47-expr/bin/../lib/gcc/msp430/4.7.0/mcpu-430x/mmpy-16/msr20/mc20/libcrt0.a(_copy_data.o)
                              /opt/msp430-47-expr/bin/../lib/gcc/msp430/4.7.0/mcpu-430x/mmpy-16/msr20/mc20/libcrt0.a(_reset_vector__.o) (__do_copy_data)
/opt/msp430-47-expr/bin/../lib/gcc/msp430/4.7.0/mcpu-430x/mmpy-16/msr20/mc20/libcrt0.a(_clear_bss.o)
                              /opt/msp430-47-expr/bin/../lib/gcc/msp430/4.7.0/mcpu-430x/mmpy-16/msr20/mc20/libcrt0.a(_reset_vector__.o) (__do_clear_bss)
/opt/msp430-47-expr/bin/../lib/gcc/msp430/4.7.0/mcpu-430x/mmpy-16/msr20/mc20/libcrt0.a(__stop_progExec__.o)
                              /opt/msp430-47-expr/bin/../lib/gcc/msp430/4.7.0/mcpu-430x/mmpy-16/msr20/mc20/libcrt0.a(_reset_vector__.o) (__stop_progExec__)
/opt/msp430-47-expr/bin/../lib/gcc/msp430/4.7.0/mcpu-430x/mmpy-16/msr20/mc20/libcrt0.a(_endless_loop__.o)
                              /opt/msp430-47-expr/bin/../lib/gcc/msp430/4.7.0/mcpu-430x/mmpy-16/msr20/mc20/libcrt0.a(_reset_vector__.o) (_endless_loop__)
/opt/msp430-47-expr/bin/../lib/gcc/msp430/4.7.0/mcpu-430x/mmpy-16/msr20/mc20/libcrt0.a(_unexpected_.o)
                              /opt/msp430-47-expr/bin/../lib/gcc/msp430/4.7.0/mcpu-430x/mmpy-16/msr20/mc20/crt0ivtbl32.o (_unexpected_)

Allocating common symbols
Common symbol       size              file

energest_total_time
                    0x30              contiki-z1.a(energest.o)
uip_ds6_timer_ra    0x8               contiki-z1.a(uip-ds6.o)
cc2420_last_rssi    0x1               contiki-z1.a(cc2420.o)
accm_int2_cb        0x4               contiki-z1.a(adxl345.o)
uip_ds6_if          0xec              contiki-z1.a(uip-ds6.o)
uip_ds6_netif_addr_list_offset
                    0x1               contiki-z1.a(uip-ds6.o)
uip_len             0x2               contiki-z1.a(uip6.o)
energest_total_count
                    0x2               contiki-z1.a(energest.o)
cc2420_sfd_start_time
                    0x2               contiki-z1.a(cc2420.o)
cc2420_time_of_departure
                    0x2               contiki-z1.a(cc2420.o)
cc2420_time_of_arrival
                    0x2               contiki-z1.a(cc2420.o)
uip_ds6_addr_size   0x1               contiki-z1.a(uip-ds6.o)
uip_sappdata        0x2               contiki-z1.a(uip6.o)
energest_current_mode
                    0xc               contiki-z1.a(energest.o)
packetbuf_addrs     0x10              contiki-z1.a(packetbuf.o)
uip_acc32           0x4               contiki-z1.a(uip6.o)
uip_ds6_prefix_list
                    0x5a              contiki-z1.a(uip-ds6.o)
process_maxevents   0x1               contiki-z1.a(process.o)
transmit_data1      0x1               contiki-z1.a(i2cmaster.o)
uip_lladdr          0x8               contiki-z1.a(uip6.o)
rx_byte_ctr         0x1               contiki-z1.a(i2cmaster.o)
uip_aligned_buf     0x8c              contiki-z1.a(uip6.o)
uip_flags           0x1               contiki-z1.a(uip6.o)
periodic_timer      0x16              contiki-z1.a(link-stats.o)
uip_ds6_timer_periodic
                    0xc               contiki-z1.a(uip-ds6.o)
tx_buf_ptr          0x2               contiki-z1.a(i2cmaster.o)
tx_byte_ctr         0x1               contiki-z1.a(i2cmaster.o)
uip_next_hdr        0x2               contiki-z1.a(uip6.o)
cc2420_last_correlation
                    0x1               contiki-z1.a(cc2420.o)
linkaddr_node_addr  0x8               contiki-z1.a(linkaddr.o)
default_instance    0x2               contiki-z1.a(rpl-dag.o)
accm_int1_cb        0x4               contiki-z1.a(adxl345.o)
cc2420_authority_level_of_sender
                    0x2               contiki-z1.a(cc2420.o)
uip_udp_conn        0x2               contiki-z1.a(uip6.o)
i                   0x2               contiki-z1.a(i2cmaster.o)
packetbuf_attrs     0x1e              contiki-z1.a(packetbuf.o)
msp430_dco_required
                    0x2               contiki-z1.a(msp430.o)
receive_data        0x1               contiki-z1.a(i2cmaster.o)
cc2420_sfd_counter  0x1               contiki-z1.a(cc2420.o)
instance_table      0x108             contiki-z1.a(rpl-dag.o)
uip_appdata         0x2               contiki-z1.a(uip6.o)
uip_conn            0x2               contiki-z1.a(uip6.o)
tcpip_event         0x1               contiki-z1.a(tcpip.o)
uip_conns           0xb0              contiki-z1.a(uip6.o)
rx_buf              0x2               contiki-z1.a(i2cmaster.o)
node_mac            0x8               contiki-z1.a(node-id.o)
uip_listenports     0x10              contiki-z1.a(uip6.o)
uip_stat            0x3e              contiki-z1.a(uip6.o)
transmit_data2      0x1               contiki-z1.a(i2cmaster.o)
energest_current_time
                    0x18              contiki-z1.a(energest.o)
rx_buf_ptr          0x2               contiki-z1.a(i2cmaster.o)
sensors_flags       0x4               contiki-z1.a(z1-sensors.o)
cc2420_sfd_end_time
                    0x2               contiki-z1.a(cc2420.o)
sensors_event       0x1               contiki-z1.a(sensors.o)
uip_slen            0x2               contiki-z1.a(uip6.o)
uip_udp_conns       0x138             contiki-z1.a(uip6.o)

Discarded input sections

 .data          0x0000000000000000        0x0 /opt/msp430-47-expr/bin/../lib/gcc/msp430/4.7.0/mcpu-430x/mmpy-16/msr20/mc20/crt0ivtbl32.o
 .bss           0x0000000000000000        0x0 /opt/msp430-47-expr/bin/../lib/gcc/msp430/4.7.0/mcpu-430x/mmpy-16/msr20/mc20/crt0ivtbl32.o
 .text.crt0     0x0000000000000000        0x0 /opt/msp430-47-expr/bin/../lib/gcc/msp430/4.7.0/mcpu-430x/mmpy-16/msr20/mc20/crt0ivtbl32.o
 .text          0x0000000000000000        0x0 udp-malicious-client-controller-aware-version-attack.co
 .data          0x0000000000000000        0x0 udp-malicious-client-controller-aware-version-attack.co
 .bss           0x0000000000000000        0x0 udp-malicious-client-controller-aware-version-attack.co
 .any.text.dao_ack_output
                0x0000000000000000        0x2 udp-malicious-client-controller-aware-version-attack.co
 .rodata.sendICMPStats
                0x0000000000000000       0x4e udp-malicious-client-controller-aware-version-attack.co
 .any.text.sendICMPStats
                0x0000000000000000       0x84 udp-malicious-client-controller-aware-version-attack.co
 .text          0x0000000000000000        0x0 obj_z1/contiki-z1-main.o
 .data          0x0000000000000000        0x0 obj_z1/contiki-z1-main.o
 .bss           0x0000000000000000        0x0 obj_z1/contiki-z1-main.o
 .any.text.uip_log
                0x0000000000000000        0x6 obj_z1/contiki-z1-main.o
 .text          0x0000000000000000        0x0 contiki-z1.a(contiki-z1-plat)
 .data          0x0000000000000000        0x0 contiki-z1.a(contiki-z1-plat)
 .bss           0x0000000000000000        0x0 contiki-z1.a(contiki-z1-plat)
 .text          0x0000000000000000        0x0 contiki-z1.a(msp430.o)
 .data          0x0000000000000000        0x0 contiki-z1.a(msp430.o)
 .bss           0x0000000000000000        0x0 contiki-z1.a(msp430.o)
 .any.text.msp430_add_lpm_req
                0x0000000000000000        0xc contiki-z1.a(msp430.o)
 .any.text.msp430_remove_lpm_req
                0x0000000000000000        0xc contiki-z1.a(msp430.o)
 .text          0x0000000000000000        0x0 contiki-z1.a(leds.o)
 .data          0x0000000000000000        0x0 contiki-z1.a(leds.o)
 .bss           0x0000000000000000        0x0 contiki-z1.a(leds.o)
 .any.text.leds_get
                0x0000000000000000        0x6 contiki-z1.a(leds.o)
 .any.text.leds_set
                0x0000000000000000        0x6 contiki-z1.a(leds.o)
 .any.text.leds_toggle
                0x0000000000000000        0xa contiki-z1.a(leds.o)
 .any.text.leds_blink
                0x0000000000000000       0x20 contiki-z1.a(leds.o)
 .text          0x0000000000000000        0x0 contiki-z1.a(watchdog.o)
 .data          0x0000000000000000        0x0 contiki-z1.a(watchdog.o)
 .bss           0x0000000000000000        0x0 contiki-z1.a(watchdog.o)
 .any.text.watchdog_reboot
                0x0000000000000000        0x6 contiki-z1.a(watchdog.o)
 .text          0x0000000000000000        0x0 contiki-z1.a(xmem.o)
 .data          0x0000000000000000        0x0 contiki-z1.a(xmem.o)
 .bss           0x0000000000000000        0x0 contiki-z1.a(xmem.o)
 .any.text.write_enable
                0x0000000000000000       0x26 contiki-z1.a(xmem.o)
 .any.text.xmem_pwrite
                0x0000000000000000      0x114 contiki-z1.a(xmem.o)
 .rodata.xmem_erase
                0x0000000000000000       0x2c contiki-z1.a(xmem.o)
 .any.text.xmem_erase
                0x0000000000000000       0xaa contiki-z1.a(xmem.o)
 .text          0x0000000000000000        0x0 contiki-z1.a(spi.o)
 .data          0x0000000000000000        0x0 contiki-z1.a(spi.o)
 .bss           0x0000000000000000        0x0 contiki-z1.a(spi.o)
 .bss.spi_busy  0x0000000000000000        0x1 contiki-z1.a(spi.o)
 .text          0x0000000000000000        0x0 contiki-z1.a(cc2420.o)
 .data          0x0000000000000000        0x0 contiki-z1.a(cc2420.o)
 .bss           0x0000000000000000        0x0 contiki-z1.a(cc2420.o)
 .any.text.set_key
                0x0000000000000000       0x18 contiki-z1.a(cc2420.o)
 .any.text.encrypt
                0x0000000000000000       0x82 contiki-z1.a(cc2420.o)
 .any.text.cc2420_get_channel
                0x0000000000000000        0x6 contiki-z1.a(cc2420.o)
 .rodata.cc2420_aes_128_driver
                0x0000000000000000        0x8 contiki-z1.a(cc2420.o)
 .text          0x0000000000000000        0x0 contiki-z1.a(cc2420-arch.o)
 .data          0x0000000000000000        0x0 contiki-z1.a(cc2420-arch.o)
 .bss           0x0000000000000000        0x0 contiki-z1.a(cc2420-arch.o)
 .text          0x0000000000000000        0x0 contiki-z1.a(node-id.o)
 .data          0x0000000000000000        0x0 contiki-z1.a(node-id.o)
 .bss           0x0000000000000000        0x0 contiki-z1.a(node-id.o)
 .any.text.node_id_burn
                0x0000000000000000       0x4e contiki-z1.a(node-id.o)
 .text          0x0000000000000000        0x0 contiki-z1.a(sensors.o)
 .data          0x0000000000000000        0x0 contiki-z1.a(sensors.o)
 .bss           0x0000000000000000        0x0 contiki-z1.a(sensors.o)
 .any.text.sensors_first
                0x0000000000000000        0x6 contiki-z1.a(sensors.o)
 .any.text.sensors_next
                0x0000000000000000       0x24 contiki-z1.a(sensors.o)
 .any.text.sensors_find
                0x0000000000000000       0x40 contiki-z1.a(sensors.o)
 .text          0x0000000000000000        0x0 contiki-z1.a(uart0.o)
 .data          0x0000000000000000        0x0 contiki-z1.a(uart0.o)
 .bss           0x0000000000000000        0x0 contiki-z1.a(uart0.o)
 .any.text.uart0_set_input
                0x0000000000000000        0x6 contiki-z1.a(uart0.o)
 .text          0x0000000000000000        0x0 contiki-z1.a(uart0-putchar.o)
 .data          0x0000000000000000        0x0 contiki-z1.a(uart0-putchar.o)
 .bss           0x0000000000000000        0x0 contiki-z1.a(uart0-putchar.o)
 .text          0x0000000000000000        0x0 contiki-z1.a(z1-sensors.o)
 .data          0x0000000000000000        0x0 contiki-z1.a(z1-sensors.o)
 .bss           0x0000000000000000        0x0 contiki-z1.a(z1-sensors.o)
 .text          0x0000000000000000        0x0 contiki-z1.a(adxl345.o)
 .data          0x0000000000000000        0x0 contiki-z1.a(adxl345.o)
 .bss           0x0000000000000000        0x0 contiki-z1.a(adxl345.o)
 .any.text.accm_read_axis
                0x0000000000000000       0x10 contiki-z1.a(adxl345.o)
 .any.text.accm_set_grange
                0x0000000000000000       0x30 contiki-z1.a(adxl345.o)
 .any.text.accm_set_irq
                0x0000000000000000       0x38 contiki-z1.a(adxl345.o)
 .text          0x0000000000000000        0x0 contiki-z1.a(tmp102.o)
 .data          0x0000000000000000        0x0 contiki-z1.a(tmp102.o)
 .bss           0x0000000000000000        0x0 contiki-z1.a(tmp102.o)
 .any.text.tmp102_write_reg
                0x0000000000000000       0x38 contiki-z1.a(tmp102.o)
 .any.text.tmp102_read_temp_raw
                0x0000000000000000        0x8 contiki-z1.a(tmp102.o)
 .any.text.tmp102_read_temp_simple
                0x0000000000000000        0xe contiki-z1.a(tmp102.o)
 .text          0x0000000000000000        0x0 contiki-z1.a(clock.o)
 .data          0x0000000000000000        0x0 contiki-z1.a(clock.o)
 .bss           0x0000000000000000        0x0 contiki-z1.a(clock.o)
 .any.text.clock_set
                0x0000000000000000       0x16 contiki-z1.a(clock.o)
 .any.text.clock_fine_max
                0x0000000000000000        0x6 contiki-z1.a(clock.o)
 .any.text.clock_fine
                0x0000000000000000        0xc contiki-z1.a(clock.o)
 .any.text.clock_set_seconds
                0x0000000000000000       0x18 contiki-z1.a(clock.o)
 .any.text.clock_counter
                0x0000000000000000        0xe contiki-z1.a(clock.o)
 .text          0x0000000000000000        0x0 contiki-z1.a(leds-arch.o)
 .data          0x0000000000000000        0x0 contiki-z1.a(leds-arch.o)
 .bss           0x0000000000000000        0x0 contiki-z1.a(leds-arch.o)
 .any.text.leds_arch_get
                0x0000000000000000       0x2e contiki-z1.a(leds-arch.o)
 .text          0x0000000000000000        0x0 contiki-z1.a(rtimer-arch.o)
 .data          0x0000000000000000        0x0 contiki-z1.a(rtimer-arch.o)
 .bss           0x0000000000000000        0x0 contiki-z1.a(rtimer-arch.o)
 .text          0x0000000000000000        0x0 contiki-z1.a(ctimer.o)
 .data          0x0000000000000000        0x0 contiki-z1.a(ctimer.o)
 .bss           0x0000000000000000        0x0 contiki-z1.a(ctimer.o)
 .any.text.ctimer_expired
                0x0000000000000000       0x30 contiki-z1.a(ctimer.o)
 .text          0x0000000000000000        0x0 contiki-z1.a(autostart.o)
 .data          0x0000000000000000        0x0 contiki-z1.a(autostart.o)
 .bss           0x0000000000000000        0x0 contiki-z1.a(autostart.o)
 .any.text.autostart_exit
                0x0000000000000000       0x14 contiki-z1.a(autostart.o)
 .text          0x0000000000000000        0x0 contiki-z1.a(energest.o)
 .data          0x0000000000000000        0x0 contiki-z1.a(energest.o)
 .bss           0x0000000000000000        0x0 contiki-z1.a(energest.o)
 .any.text.energest_leveldevice_leveltime
                0x0000000000000000        0x6 contiki-z1.a(energest.o)
 .text          0x0000000000000000        0x0 contiki-z1.a(etimer.o)
 .data          0x0000000000000000        0x0 contiki-z1.a(etimer.o)
 .bss           0x0000000000000000        0x0 contiki-z1.a(etimer.o)
 .any.text.etimer_reset_with_new_interval
                0x0000000000000000       0x1e contiki-z1.a(etimer.o)
 .any.text.etimer_adjust
                0x0000000000000000       0x1a contiki-z1.a(etimer.o)
 .any.text.etimer_start_time
                0x0000000000000000        0x8 contiki-z1.a(etimer.o)
 .text          0x0000000000000000        0x0 contiki-z1.a(process.o)
 .data          0x0000000000000000        0x0 contiki-z1.a(process.o)
 .bss           0x0000000000000000        0x0 contiki-z1.a(process.o)
 .any.text.process_exit
                0x0000000000000000        0xa contiki-z1.a(process.o)
 .any.text.process_is_running
                0x0000000000000000        0xe contiki-z1.a(process.o)
 .text          0x0000000000000000        0x0 contiki-z1.a(rtimer.o)
 .data          0x0000000000000000        0x0 contiki-z1.a(rtimer.o)
 .bss           0x0000000000000000        0x0 contiki-z1.a(rtimer.o)
 .any.text.rtimer_set
                0x0000000000000000       0x24 contiki-z1.a(rtimer.o)
 .text          0x0000000000000000        0x0 contiki-z1.a(timer.o)
 .data          0x0000000000000000        0x0 contiki-z1.a(timer.o)
 .bss           0x0000000000000000        0x0 contiki-z1.a(timer.o)
 .any.text.timer_remaining
                0x0000000000000000       0x24 contiki-z1.a(timer.o)
 .text          0x0000000000000000        0x0 contiki-z1.a(list.o)
 .data          0x0000000000000000        0x0 contiki-z1.a(list.o)
 .bss           0x0000000000000000        0x0 contiki-z1.a(list.o)
 .any.text.list_copy
                0x0000000000000000        0x6 contiki-z1.a(list.o)
 .any.text.list_chop
                0x0000000000000000       0x1a contiki-z1.a(list.o)
 .any.text.list_pop
                0x0000000000000000        0xe contiki-z1.a(list.o)
 .any.text.list_insert
                0x0000000000000000       0x16 contiki-z1.a(list.o)
 .text          0x0000000000000000        0x0 contiki-z1.a(random.o)
 .data          0x0000000000000000        0x0 contiki-z1.a(random.o)
 .bss           0x0000000000000000        0x0 contiki-z1.a(random.o)
 .text          0x0000000000000000        0x0 contiki-z1.a(uip-icmp6.o)
 .data          0x0000000000000000        0x0 contiki-z1.a(uip-icmp6.o)
 .bss           0x0000000000000000        0x0 contiki-z1.a(uip-icmp6.o)
 .any.text.uip_icmp6_echo_reply_callback_add
                0x0000000000000000       0x18 contiki-z1.a(uip-icmp6.o)
 .any.text.uip_icmp6_echo_reply_callback_rm
                0x0000000000000000        0xc contiki-z1.a(uip-icmp6.o)
 .text          0x0000000000000000        0x0 contiki-z1.a(uip-ds6.o)
 .data          0x0000000000000000        0x0 contiki-z1.a(uip-ds6.o)
 .bss           0x0000000000000000        0x0 contiki-z1.a(uip-ds6.o)
 .any.text.uip_ds6_prefix_rm
                0x0000000000000000        0xa contiki-z1.a(uip-ds6.o)
 .any.text.uip_ds6_prefix_lookup
                0x0000000000000000       0x28 contiki-z1.a(uip-ds6.o)
 .any.text.uip_ds6_get_global
                0x0000000000000000       0x3e contiki-z1.a(uip-ds6.o)
 .any.text.uip_ds6_aaddr_add
                0x0000000000000000       0x46 contiki-z1.a(uip-ds6.o)
 .any.text.uip_ds6_aaddr_rm
                0x0000000000000000        0xa contiki-z1.a(uip-ds6.o)
 .any.text.uip_ds6_aaddr_lookup
                0x0000000000000000       0x28 contiki-z1.a(uip-ds6.o)
 .bss.locaaddr  0x0000000000000000        0x2 contiki-z1.a(uip-ds6.o)
 .text          0x0000000000000000        0x0 contiki-z1.a(uip-ds6-route.o)
 .data          0x0000000000000000        0x0 contiki-z1.a(uip-ds6-route.o)
 .bss           0x0000000000000000        0x0 contiki-z1.a(uip-ds6-route.o)
 .any.text.uip_ds6_notification_add
                0x0000000000000000       0x18 contiki-z1.a(uip-ds6-route.o)
 .any.text.uip_ds6_notification_rm
                0x0000000000000000        0xc contiki-z1.a(uip-ds6-route.o)
 .any.text.uip_ds6_route_num_routes
                0x0000000000000000        0x6 contiki-z1.a(uip-ds6-route.o)
 .any.text.uip_ds6_route_rm_by_nexthop
                0x0000000000000000       0x14 contiki-z1.a(uip-ds6-route.o)
 .any.text.uip_ds6_defrt_head
                0x0000000000000000        0xa contiki-z1.a(uip-ds6-route.o)
 .text          0x0000000000000000        0x0 contiki-z1.a(uip6.o)
 .data          0x0000000000000000        0x0 contiki-z1.a(uip6.o)
 .bss           0x0000000000000000        0x0 contiki-z1.a(uip6.o)
 .any.text.uip_chksum
                0x0000000000000000       0x18 contiki-z1.a(uip6.o)
 .any.text.uip_connect
                0x0000000000000000      0x108 contiki-z1.a(uip6.o)
 .any.text.uip_listen
                0x0000000000000000       0x1a contiki-z1.a(uip6.o)
 .any.text.uip_htons
                0x0000000000000000        0xc contiki-z1.a(uip6.o)
 .any.text.uip_send
                0x0000000000000000       0x48 contiki-z1.a(uip6.o)
 .text          0x0000000000000000        0x0 contiki-z1.a(uip-ds6-nbr.o)
 .data          0x0000000000000000        0x0 contiki-z1.a(uip-ds6-nbr.o)
 .bss           0x0000000000000000        0x0 contiki-z1.a(uip-ds6-nbr.o)
 .any.text.uip_ds6_nbr_get_ipaddr
                0x0000000000000000        0x2 contiki-z1.a(uip-ds6-nbr.o)
 .any.text.uip_ds6_nbr_num
                0x0000000000000000       0x24 contiki-z1.a(uip-ds6-nbr.o)
 .text          0x0000000000000000        0x0 contiki-z1.a(uip-nd6.o)
 .data          0x0000000000000000        0x0 contiki-z1.a(uip-nd6.o)
 .bss           0x0000000000000000        0x0 contiki-z1.a(uip-nd6.o)
 .text          0x0000000000000000        0x0 contiki-z1.a(sicslowpan.o)
 .data          0x0000000000000000        0x0 contiki-z1.a(sicslowpan.o)
 .bss           0x0000000000000000        0x0 contiki-z1.a(sicslowpan.o)
 .any.text.rime_sniffer_add
                0x0000000000000000        0x6 contiki-z1.a(sicslowpan.o)
 .any.text.rime_sniffer_remove
                0x0000000000000000        0x6 contiki-z1.a(sicslowpan.o)
 .any.text.sicslowpan_get_last_rssi
                0x0000000000000000        0x6 contiki-z1.a(sicslowpan.o)
 .text          0x0000000000000000        0x0 contiki-z1.a(uip-udp-packet.)
 .data          0x0000000000000000        0x0 contiki-z1.a(uip-udp-packet.)
 .bss           0x0000000000000000        0x0 contiki-z1.a(uip-udp-packet.)
 .text          0x0000000000000000        0x0 contiki-z1.a(tcpip.o)
 .data          0x0000000000000000        0x0 contiki-z1.a(tcpip.o)
 .bss           0x0000000000000000        0x0 contiki-z1.a(tcpip.o)
 .any.text.tcp_unlisten
                0x0000000000000000       0x26 contiki-z1.a(tcpip.o)
 .any.text.tcp_listen
                0x0000000000000000       0x24 contiki-z1.a(tcpip.o)
 .any.text.tcp_attach
                0x0000000000000000        0xc contiki-z1.a(tcpip.o)
 .any.text.udp_attach
                0x0000000000000000        0xc contiki-z1.a(tcpip.o)
 .any.text.udp_broadcast_new
                0x0000000000000000       0x46 contiki-z1.a(tcpip.o)
 .any.text.tcpip_poll_udp
                0x0000000000000000        0xe contiki-z1.a(tcpip.o)
 .any.text.tcpip_poll_tcp
                0x0000000000000000        0xe contiki-z1.a(tcpip.o)
 .any.text.tcp_connect
                0x0000000000000000       0x22 contiki-z1.a(tcpip.o)
 .text          0x0000000000000000        0x0 contiki-z1.a(uip-debug.o)
 .data          0x0000000000000000        0x0 contiki-z1.a(uip-debug.o)
 .bss           0x0000000000000000        0x0 contiki-z1.a(uip-debug.o)
 .text          0x0000000000000000        0x0 contiki-z1.a(rpl-timers.o)
 .data          0x0000000000000000        0x0 contiki-z1.a(rpl-timers.o)
 .bss           0x0000000000000000        0x0 contiki-z1.a(rpl-timers.o)
 .any.text.rpl_schedule_dao_immediately
                0x0000000000000000        0xa contiki-z1.a(rpl-timers.o)
 .any.text.rpl_cancel_dao
                0x0000000000000000       0x1a contiki-z1.a(rpl-timers.o)
 .text          0x0000000000000000        0x0 contiki-z1.a(rpl-ext-header.)
 .data          0x0000000000000000        0x0 contiki-z1.a(rpl-ext-header.)
 .bss           0x0000000000000000        0x0 contiki-z1.a(rpl-ext-header.)
 .text          0x0000000000000000        0x0 contiki-z1.a(rpl.o)
 .data          0x0000000000000000        0x0 contiki-z1.a(rpl.o)
 .bss           0x0000000000000000        0x0 contiki-z1.a(rpl.o)
 .any.text.rpl_set_mode
                0x0000000000000000       0x52 contiki-z1.a(rpl.o)
 .text          0x0000000000000000        0x0 contiki-z1.a(rpl-dag.o)
 .data          0x0000000000000000        0x0 contiki-z1.a(rpl-dag.o)
 .bss           0x0000000000000000        0x0 contiki-z1.a(rpl-dag.o)
 .any.text.rpl_get_parent_rank
                0x0000000000000000       0x18 contiki-z1.a(rpl-dag.o)
 .any.text.rpl_get_parent_link_metric
                0x0000000000000000       0x2a contiki-z1.a(rpl-dag.o)
 .any.text.rpl_get_nbr
                0x0000000000000000       0x18 contiki-z1.a(rpl-dag.o)
 .rodata.rpl_print_neighbor_list
                0x0000000000000000       0x84 contiki-z1.a(rpl-dag.o)
 .any.text.rpl_print_neighbor_list
                0x0000000000000000      0x10e contiki-z1.a(rpl-dag.o)
 .any.text.rpl_set_default_instance
                0x0000000000000000        0x6 contiki-z1.a(rpl-dag.o)
 .any.text.rpl_get_default_instance
                0x0000000000000000        0x6 contiki-z1.a(rpl-dag.o)
 .any.text.rpl_free_instance
                0x0000000000000000       0x68 contiki-z1.a(rpl-dag.o)
 .any.text.rpl_has_downward_route
                0x0000000000000000       0x12 contiki-z1.a(rpl-dag.o)
 .any.text.rpl_set_root
                0x0000000000000000      0x12e contiki-z1.a(rpl-dag.o)
 .text          0x0000000000000000        0x0 contiki-z1.a(queuebuf.o)
 .data          0x0000000000000000        0x0 contiki-z1.a(queuebuf.o)
 .bss           0x0000000000000000        0x0 contiki-z1.a(queuebuf.o)
 .any.text.queuebuf_update_from_packetbuf
                0x0000000000000000       0x22 contiki-z1.a(queuebuf.o)
 .any.text.queuebuf_dataptr
                0x0000000000000000       0x1c contiki-z1.a(queuebuf.o)
 .any.text.queuebuf_datalen
                0x0000000000000000        0x8 contiki-z1.a(queuebuf.o)
 .any.text.queuebuf_addr
                0x0000000000000000        0xe contiki-z1.a(queuebuf.o)
 .any.text.queuebuf_debug_print
                0x0000000000000000        0x2 contiki-z1.a(queuebuf.o)
 .text          0x0000000000000000        0x0 contiki-z1.a(nbr-table.o)
 .data          0x0000000000000000        0x0 contiki-z1.a(nbr-table.o)
 .bss           0x0000000000000000        0x0 contiki-z1.a(nbr-table.o)
 .text          0x0000000000000000        0x0 contiki-z1.a(packetbuf.o)
 .data          0x0000000000000000        0x0 contiki-z1.a(packetbuf.o)
 .bss           0x0000000000000000        0x0 contiki-z1.a(packetbuf.o)
 .any.text.packetbuf_compact
                0x0000000000000000       0x3c contiki-z1.a(packetbuf.o)
 .any.text.packetbuf_remaininglen
                0x0000000000000000        0xe contiki-z1.a(packetbuf.o)
 .text          0x0000000000000000        0x0 contiki-z1.a(linkaddr.o)
 .data          0x0000000000000000        0x0 contiki-z1.a(linkaddr.o)
 .bss           0x0000000000000000        0x0 contiki-z1.a(linkaddr.o)
 .text          0x0000000000000000        0x0 contiki-z1.a(link-stats.o)
 .data          0x0000000000000000        0x0 contiki-z1.a(link-stats.o)
 .bss           0x0000000000000000        0x0 contiki-z1.a(link-stats.o)
 .any.text.guess_etx_from_rssi
                0x0000000000000000       0x42 contiki-z1.a(link-stats.o)
 .text          0x0000000000000000        0x0 contiki-z1.a(framer-802154.o)
 .data          0x0000000000000000        0x0 contiki-z1.a(framer-802154.o)
 .bss           0x0000000000000000        0x0 contiki-z1.a(framer-802154.o)
 .text          0x0000000000000000        0x0 contiki-z1.a(csma.o)
 .data          0x0000000000000000        0x0 contiki-z1.a(csma.o)
 .bss           0x0000000000000000        0x0 contiki-z1.a(csma.o)
 .text          0x0000000000000000        0x0 contiki-z1.a(frame802154.o)
 .data          0x0000000000000000        0x0 contiki-z1.a(frame802154.o)
 .bss           0x0000000000000000        0x0 contiki-z1.a(frame802154.o)
 .any.text.frame802154_set_pan_id
                0x0000000000000000        0x6 contiki-z1.a(frame802154.o)
 .any.text.frame802154_check_dest_panid
                0x0000000000000000       0x3a contiki-z1.a(frame802154.o)
 .any.text.frame802154_extract_linkaddr
                0x0000000000000000       0x8c contiki-z1.a(frame802154.o)
 .text          0x0000000000000000        0x0 contiki-z1.a(mac.o)
 .data          0x0000000000000000        0x0 contiki-z1.a(mac.o)
 .bss           0x0000000000000000        0x0 contiki-z1.a(mac.o)
 .text          0x0000000000000000        0x0 contiki-z1.a(nullrdc.o)
 .data          0x0000000000000000        0x0 contiki-z1.a(nullrdc.o)
 .bss           0x0000000000000000        0x0 contiki-z1.a(nullrdc.o)
 .text          0x0000000000000000        0x0 contiki-z1.a(nullsec.o)
 .data          0x0000000000000000        0x0 contiki-z1.a(nullsec.o)
 .bss           0x0000000000000000        0x0 contiki-z1.a(nullsec.o)
 .text          0x0000000000000000        0x0 contiki-z1.a(i2cmaster.o)
 .data          0x0000000000000000        0x0 contiki-z1.a(i2cmaster.o)
 .bss           0x0000000000000000        0x0 contiki-z1.a(i2cmaster.o)
 .any.text.i2c_setrate
                0x0000000000000000        0x6 contiki-z1.a(i2cmaster.o)
 .any.text.i2c_disable
                0x0000000000000000       0x1a contiki-z1.a(i2cmaster.o)
 .text          0x0000000000000000        0x0 contiki-z1.a(button-sensor.o)
 .data          0x0000000000000000        0x0 contiki-z1.a(button-sensor.o)
 .bss           0x0000000000000000        0x0 contiki-z1.a(button-sensor.o)
 .text          0x0000000000000000        0x0 contiki-z1.a(stimer.o)
 .data          0x0000000000000000        0x0 contiki-z1.a(stimer.o)
 .bss           0x0000000000000000        0x0 contiki-z1.a(stimer.o)
 .any.text.stimer_reset
                0x0000000000000000        0xe contiki-z1.a(stimer.o)
 .any.text.stimer_restart
                0x0000000000000000       0x14 contiki-z1.a(stimer.o)
 .any.text.stimer_remaining
                0x0000000000000000       0x24 contiki-z1.a(stimer.o)
 .any.text.stimer_elapsed
                0x0000000000000000       0x12 contiki-z1.a(stimer.o)
 .text          0x0000000000000000        0x0 contiki-z1.a(memb.o)
 .data          0x0000000000000000        0x0 contiki-z1.a(memb.o)
 .bss           0x0000000000000000        0x0 contiki-z1.a(memb.o)
 .text          0x0000000000000000        0x0 contiki-z1.a(rpl-nbr-policy.)
 .data          0x0000000000000000        0x0 contiki-z1.a(rpl-nbr-policy.)
 .bss           0x0000000000000000        0x0 contiki-z1.a(rpl-nbr-policy.)
 .text          0x0000000000000000        0x0 contiki-z1.a(rpl-mrhof.o)
 .data          0x0000000000000000        0x0 contiki-z1.a(rpl-mrhof.o)
 .bss           0x0000000000000000        0x0 contiki-z1.a(rpl-mrhof.o)
 .text          0x0000000000000000        0x0 contiki-z1.a(mac-sequence.o)
 .data          0x0000000000000000        0x0 contiki-z1.a(mac-sequence.o)
 .bss           0x0000000000000000        0x0 contiki-z1.a(mac-sequence.o)
 .text          0x0000000000000000        0x0 /opt/msp430-47-expr/bin/../lib/gcc/msp430/4.7.0/mcpu-430x/mmpy-16/msr20/mc20/libgcc.a(_mulsi3.o)
 .data          0x0000000000000000        0x0 /opt/msp430-47-expr/bin/../lib/gcc/msp430/4.7.0/mcpu-430x/mmpy-16/msr20/mc20/libgcc.a(_mulsi3.o)
 .bss           0x0000000000000000        0x0 /opt/msp430-47-expr/bin/../lib/gcc/msp430/4.7.0/mcpu-430x/mmpy-16/msr20/mc20/libgcc.a(_mulsi3.o)
 .text          0x0000000000000000        0x0 /opt/msp430-47-expr/bin/../lib/gcc/msp430/4.7.0/mcpu-430x/mmpy-16/msr20/mc20/libgcc.a(_udivmod16.o)
 .data          0x0000000000000000        0x0 /opt/msp430-47-expr/bin/../lib/gcc/msp430/4.7.0/mcpu-430x/mmpy-16/msr20/mc20/libgcc.a(_udivmod16.o)
 .bss           0x0000000000000000        0x0 /opt/msp430-47-expr/bin/../lib/gcc/msp430/4.7.0/mcpu-430x/mmpy-16/msr20/mc20/libgcc.a(_udivmod16.o)
 .text          0x0000000000000000        0x0 /opt/msp430-47-expr/bin/../lib/gcc/msp430/4.7.0/mcpu-430x/mmpy-16/msr20/mc20/libgcc.a(_divmod16.o)
 .data          0x0000000000000000        0x0 /opt/msp430-47-expr/bin/../lib/gcc/msp430/4.7.0/mcpu-430x/mmpy-16/msr20/mc20/libgcc.a(_divmod16.o)
 .bss           0x0000000000000000        0x0 /opt/msp430-47-expr/bin/../lib/gcc/msp430/4.7.0/mcpu-430x/mmpy-16/msr20/mc20/libgcc.a(_divmod16.o)
 .text          0x0000000000000000        0x0 /opt/msp430-47-expr/bin/../lib/gcc/msp430/4.7.0/mcpu-430x/mmpy-16/msr20/mc20/libgcc.a(_udivmod32.o)
 .data          0x0000000000000000        0x0 /opt/msp430-47-expr/bin/../lib/gcc/msp430/4.7.0/mcpu-430x/mmpy-16/msr20/mc20/libgcc.a(_udivmod32.o)
 .bss           0x0000000000000000        0x0 /opt/msp430-47-expr/bin/../lib/gcc/msp430/4.7.0/mcpu-430x/mmpy-16/msr20/mc20/libgcc.a(_udivmod32.o)
 .text          0x0000000000000000        0x0 /opt/msp430-47-expr/bin/../lib/gcc/msp430/4.7.0/mcpu-430x/mmpy-16/msr20/mc20/libgcc.a(_divmod32.o)
 .data          0x0000000000000000        0x0 /opt/msp430-47-expr/bin/../lib/gcc/msp430/4.7.0/mcpu-430x/mmpy-16/msr20/mc20/libgcc.a(_divmod32.o)
 .bss           0x0000000000000000        0x0 /opt/msp430-47-expr/bin/../lib/gcc/msp430/4.7.0/mcpu-430x/mmpy-16/msr20/mc20/libgcc.a(_divmod32.o)
 .text          0x0000000000000000        0x0 /opt/msp430-47-expr/bin/../lib/gcc/msp430/4.7.0/../../../../msp430/lib/mcpu-430x/mmpy-16/msr20/mc20/libc.a(printf.o)
 .data          0x0000000000000000        0x0 /opt/msp430-47-expr/bin/../lib/gcc/msp430/4.7.0/../../../../msp430/lib/mcpu-430x/mmpy-16/msr20/mc20/libc.a(printf.o)
 .bss           0x0000000000000000        0x0 /opt/msp430-47-expr/bin/../lib/gcc/msp430/4.7.0/../../../../msp430/lib/mcpu-430x/mmpy-16/msr20/mc20/libc.a(printf.o)
 .any.text.vprintf
                0x0000000000000000        0xe /opt/msp430-47-expr/bin/../lib/gcc/msp430/4.7.0/../../../../msp430/lib/mcpu-430x/mmpy-16/msr20/mc20/libc.a(printf.o)
 .text          0x0000000000000000        0x0 /opt/msp430-47-expr/bin/../lib/gcc/msp430/4.7.0/../../../../msp430/lib/mcpu-430x/mmpy-16/msr20/mc20/libc.a(sprintf.o)
 .data          0x0000000000000000        0x0 /opt/msp430-47-expr/bin/../lib/gcc/msp430/4.7.0/../../../../msp430/lib/mcpu-430x/mmpy-16/msr20/mc20/libc.a(sprintf.o)
 .bss           0x0000000000000000        0x0 /opt/msp430-47-expr/bin/../lib/gcc/msp430/4.7.0/../../../../msp430/lib/mcpu-430x/mmpy-16/msr20/mc20/libc.a(sprintf.o)
 .any.text.snprintf
                0x0000000000000000       0x1c /opt/msp430-47-expr/bin/../lib/gcc/msp430/4.7.0/../../../../msp430/lib/mcpu-430x/mmpy-16/msr20/mc20/libc.a(sprintf.o)
 .any.text.vsprintf
                0x0000000000000000       0x16 /opt/msp430-47-expr/bin/../lib/gcc/msp430/4.7.0/../../../../msp430/lib/mcpu-430x/mmpy-16/msr20/mc20/libc.a(sprintf.o)
 .any.text.vsnprintf
                0x0000000000000000       0x12 /opt/msp430-47-expr/bin/../lib/gcc/msp430/4.7.0/../../../../msp430/lib/mcpu-430x/mmpy-16/msr20/mc20/libc.a(sprintf.o)
 .text          0x0000000000000000        0x0 /opt/msp430-47-expr/bin/../lib/gcc/msp430/4.7.0/../../../../msp430/lib/mcpu-430x/mmpy-16/msr20/mc20/libc.a(vuprintf.o)
 .data          0x0000000000000000        0x0 /opt/msp430-47-expr/bin/../lib/gcc/msp430/4.7.0/../../../../msp430/lib/mcpu-430x/mmpy-16/msr20/mc20/libc.a(vuprintf.o)
 .bss           0x0000000000000000        0x0 /opt/msp430-47-expr/bin/../lib/gcc/msp430/4.7.0/../../../../msp430/lib/mcpu-430x/mmpy-16/msr20/mc20/libc.a(vuprintf.o)
 .text          0x0000000000000000        0x0 /opt/msp430-47-expr/bin/../lib/gcc/msp430/4.7.0/../../../../msp430/lib/mcpu-430x/mmpy-16/msr20/mc20/libc.a(puts.o)
 .data          0x0000000000000000        0x0 /opt/msp430-47-expr/bin/../lib/gcc/msp430/4.7.0/../../../../msp430/lib/mcpu-430x/mmpy-16/msr20/mc20/libc.a(puts.o)
 .bss           0x0000000000000000        0x0 /opt/msp430-47-expr/bin/../lib/gcc/msp430/4.7.0/../../../../msp430/lib/mcpu-430x/mmpy-16/msr20/mc20/libc.a(puts.o)
 .text          0x0000000000000000        0x0 /opt/msp430-47-expr/bin/../lib/gcc/msp430/4.7.0/../../../../msp430/lib/mcpu-430x/mmpy-16/msr20/mc20/libc.a(rand.o)
 .data          0x0000000000000000        0x0 /opt/msp430-47-expr/bin/../lib/gcc/msp430/4.7.0/../../../../msp430/lib/mcpu-430x/mmpy-16/msr20/mc20/libc.a(rand.o)
 .bss           0x0000000000000000        0x0 /opt/msp430-47-expr/bin/../lib/gcc/msp430/4.7.0/../../../../msp430/lib/mcpu-430x/mmpy-16/msr20/mc20/libc.a(rand.o)
 .any.text.rand_r
                0x0000000000000000       0x24 /opt/msp430-47-expr/bin/../lib/gcc/msp430/4.7.0/../../../../msp430/lib/mcpu-430x/mmpy-16/msr20/mc20/libc.a(rand.o)
 .text          0x0000000000000000        0x0 /opt/msp430-47-expr/bin/../lib/gcc/msp430/4.7.0/../../../../msp430/lib/mcpu-430x/mmpy-16/msr20/mc20/libc.a(strncmp.o)
 .data          0x0000000000000000        0x0 /opt/msp430-47-expr/bin/../lib/gcc/msp430/4.7.0/../../../../msp430/lib/mcpu-430x/mmpy-16/msr20/mc20/libc.a(strncmp.o)
 .bss           0x0000000000000000        0x0 /opt/msp430-47-expr/bin/../lib/gcc/msp430/4.7.0/../../../../msp430/lib/mcpu-430x/mmpy-16/msr20/mc20/libc.a(strncmp.o)
 .any.text.strncmp
                0x0000000000000000       0x2a /opt/msp430-47-expr/bin/../lib/gcc/msp430/4.7.0/../../../../msp430/lib/mcpu-430x/mmpy-16/msr20/mc20/libc.a(strncmp.o)
 .debug_frame   0x0000000000000000       0x2c /opt/msp430-47-expr/bin/../lib/gcc/msp430/4.7.0/../../../../msp430/lib/mcpu-430x/mmpy-16/msr20/mc20/libc.a(strncmp.o)
 .debug_info    0x0000000000000000       0xd8 /opt/msp430-47-expr/bin/../lib/gcc/msp430/4.7.0/../../../../msp430/lib/mcpu-430x/mmpy-16/msr20/mc20/libc.a(strncmp.o)
 .debug_abbrev  0x0000000000000000       0x72 /opt/msp430-47-expr/bin/../lib/gcc/msp430/4.7.0/../../../../msp430/lib/mcpu-430x/mmpy-16/msr20/mc20/libc.a(strncmp.o)
 .debug_loc     0x0000000000000000       0x7a /opt/msp430-47-expr/bin/../lib/gcc/msp430/4.7.0/../../../../msp430/lib/mcpu-430x/mmpy-16/msr20/mc20/libc.a(strncmp.o)
 .debug_aranges
                0x0000000000000000       0x20 /opt/msp430-47-expr/bin/../lib/gcc/msp430/4.7.0/../../../../msp430/lib/mcpu-430x/mmpy-16/msr20/mc20/libc.a(strncmp.o)
 .debug_ranges  0x0000000000000000       0x10 /opt/msp430-47-expr/bin/../lib/gcc/msp430/4.7.0/../../../../msp430/lib/mcpu-430x/mmpy-16/msr20/mc20/libc.a(strncmp.o)
 .debug_line    0x0000000000000000       0xcc /opt/msp430-47-expr/bin/../lib/gcc/msp430/4.7.0/../../../../msp430/lib/mcpu-430x/mmpy-16/msr20/mc20/libc.a(strncmp.o)
 .debug_str     0x0000000000000000      0x12f /opt/msp430-47-expr/bin/../lib/gcc/msp430/4.7.0/../../../../msp430/lib/mcpu-430x/mmpy-16/msr20/mc20/libc.a(strncmp.o)
 .comment       0x0000000000000000       0x31 /opt/msp430-47-expr/bin/../lib/gcc/msp430/4.7.0/../../../../msp430/lib/mcpu-430x/mmpy-16/msr20/mc20/libc.a(strncmp.o)
 .gnu.attributes
                0x0000000000000000       0x11 /opt/msp430-47-expr/bin/../lib/gcc/msp430/4.7.0/../../../../msp430/lib/mcpu-430x/mmpy-16/msr20/mc20/libc.a(strncmp.o)
 .text          0x0000000000000000        0x0 /opt/msp430-47-expr/bin/../lib/gcc/msp430/4.7.0/../../../../msp430/lib/mcpu-430x/mmpy-16/msr20/mc20/libc.a(memcmp.o)
 .data          0x0000000000000000        0x0 /opt/msp430-47-expr/bin/../lib/gcc/msp430/4.7.0/../../../../msp430/lib/mcpu-430x/mmpy-16/msr20/mc20/libc.a(memcmp.o)
 .bss           0x0000000000000000        0x0 /opt/msp430-47-expr/bin/../lib/gcc/msp430/4.7.0/../../../../msp430/lib/mcpu-430x/mmpy-16/msr20/mc20/libc.a(memcmp.o)
 .text          0x0000000000000000        0x0 /opt/msp430-47-expr/bin/../lib/gcc/msp430/4.7.0/../../../../msp430/lib/mcpu-430x/mmpy-16/msr20/mc20/libc.a(strcpy.o)
 .data          0x0000000000000000        0x0 /opt/msp430-47-expr/bin/../lib/gcc/msp430/4.7.0/../../../../msp430/lib/mcpu-430x/mmpy-16/msr20/mc20/libc.a(strcpy.o)
 .bss           0x0000000000000000        0x0 /opt/msp430-47-expr/bin/../lib/gcc/msp430/4.7.0/../../../../msp430/lib/mcpu-430x/mmpy-16/msr20/mc20/libc.a(strcpy.o)
 .text          0x0000000000000000        0x0 /opt/msp430-47-expr/bin/../lib/gcc/msp430/4.7.0/../../../../msp430/lib/mcpu-430x/mmpy-16/msr20/mc20/libc.a(memcpy.o)
 .data          0x0000000000000000        0x0 /opt/msp430-47-expr/bin/../lib/gcc/msp430/4.7.0/../../../../msp430/lib/mcpu-430x/mmpy-16/msr20/mc20/libc.a(memcpy.o)
 .bss           0x0000000000000000        0x0 /opt/msp430-47-expr/bin/../lib/gcc/msp430/4.7.0/../../../../msp430/lib/mcpu-430x/mmpy-16/msr20/mc20/libc.a(memcpy.o)
 .text          0x0000000000000000        0x0 /opt/msp430-47-expr/bin/../lib/gcc/msp430/4.7.0/../../../../msp430/lib/mcpu-430x/mmpy-16/msr20/mc20/libc.a(memmove.o)
 .data          0x0000000000000000        0x0 /opt/msp430-47-expr/bin/../lib/gcc/msp430/4.7.0/../../../../msp430/lib/mcpu-430x/mmpy-16/msr20/mc20/libc.a(memmove.o)
 .bss           0x0000000000000000        0x0 /opt/msp430-47-expr/bin/../lib/gcc/msp430/4.7.0/../../../../msp430/lib/mcpu-430x/mmpy-16/msr20/mc20/libc.a(memmove.o)
 .text          0x0000000000000000        0x0 /opt/msp430-47-expr/bin/../lib/gcc/msp430/4.7.0/../../../../msp430/lib/mcpu-430x/mmpy-16/msr20/mc20/libc.a(memset.o)
 .data          0x0000000000000000        0x0 /opt/msp430-47-expr/bin/../lib/gcc/msp430/4.7.0/../../../../msp430/lib/mcpu-430x/mmpy-16/msr20/mc20/libc.a(memset.o)
 .bss           0x0000000000000000        0x0 /opt/msp430-47-expr/bin/../lib/gcc/msp430/4.7.0/../../../../msp430/lib/mcpu-430x/mmpy-16/msr20/mc20/libc.a(memset.o)
 .text          0x0000000000000000        0x0 /opt/msp430-47-expr/bin/../lib/gcc/msp430/4.7.0/../../../../msp430/lib/mcpu-430x/mmpy-16/msr20/mc20/libc.a(strcat.o)
 .data          0x0000000000000000        0x0 /opt/msp430-47-expr/bin/../lib/gcc/msp430/4.7.0/../../../../msp430/lib/mcpu-430x/mmpy-16/msr20/mc20/libc.a(strcat.o)
 .bss           0x0000000000000000        0x0 /opt/msp430-47-expr/bin/../lib/gcc/msp430/4.7.0/../../../../msp430/lib/mcpu-430x/mmpy-16/msr20/mc20/libc.a(strcat.o)
 .text          0x0000000000000000        0x0 /opt/msp430-47-expr/bin/../lib/gcc/msp430/4.7.0/mcpu-430x/mmpy-16/msr20/mc20/libgcc.a(_udivmod64.o)
 .data          0x0000000000000000        0x0 /opt/msp430-47-expr/bin/../lib/gcc/msp430/4.7.0/mcpu-430x/mmpy-16/msr20/mc20/libgcc.a(_udivmod64.o)
 .bss           0x0000000000000000        0x0 /opt/msp430-47-expr/bin/../lib/gcc/msp430/4.7.0/mcpu-430x/mmpy-16/msr20/mc20/libgcc.a(_udivmod64.o)
 .text          0x0000000000000000        0x0 /opt/msp430-47-expr/bin/../lib/gcc/msp430/4.7.0/mcpu-430x/mmpy-16/msr20/mc20/libcrt0.a(_reset_vector__.o)
 .data          0x0000000000000000        0x0 /opt/msp430-47-expr/bin/../lib/gcc/msp430/4.7.0/mcpu-430x/mmpy-16/msr20/mc20/libcrt0.a(_reset_vector__.o)
 .bss           0x0000000000000000        0x0 /opt/msp430-47-expr/bin/../lib/gcc/msp430/4.7.0/mcpu-430x/mmpy-16/msr20/mc20/libcrt0.a(_reset_vector__.o)
 .text          0x0000000000000000        0x0 /opt/msp430-47-expr/bin/../lib/gcc/msp430/4.7.0/mcpu-430x/mmpy-16/msr20/mc20/libcrt0.a(__watchdog_support.o)
 .data          0x0000000000000000        0x0 /opt/msp430-47-expr/bin/../lib/gcc/msp430/4.7.0/mcpu-430x/mmpy-16/msr20/mc20/libcrt0.a(__watchdog_support.o)
 .bss           0x0000000000000000        0x0 /opt/msp430-47-expr/bin/../lib/gcc/msp430/4.7.0/mcpu-430x/mmpy-16/msr20/mc20/libcrt0.a(__watchdog_support.o)
 .text          0x0000000000000000        0x0 /opt/msp430-47-expr/bin/../lib/gcc/msp430/4.7.0/mcpu-430x/mmpy-16/msr20/mc20/libcrt0.a(__init_stack.o)
 .data          0x0000000000000000        0x0 /opt/msp430-47-expr/bin/../lib/gcc/msp430/4.7.0/mcpu-430x/mmpy-16/msr20/mc20/libcrt0.a(__init_stack.o)
 .bss           0x0000000000000000        0x0 /opt/msp430-47-expr/bin/../lib/gcc/msp430/4.7.0/mcpu-430x/mmpy-16/msr20/mc20/libcrt0.a(__init_stack.o)
 .text          0x0000000000000000        0x0 /opt/msp430-47-expr/bin/../lib/gcc/msp430/4.7.0/mcpu-430x/mmpy-16/msr20/mc20/libcrt0.a(__low_level_init.o)
 .data          0x0000000000000000        0x0 /opt/msp430-47-expr/bin/../lib/gcc/msp430/4.7.0/mcpu-430x/mmpy-16/msr20/mc20/libcrt0.a(__low_level_init.o)
 .bss           0x0000000000000000        0x0 /opt/msp430-47-expr/bin/../lib/gcc/msp430/4.7.0/mcpu-430x/mmpy-16/msr20/mc20/libcrt0.a(__low_level_init.o)
 .text          0x0000000000000000        0x0 /opt/msp430-47-expr/bin/../lib/gcc/msp430/4.7.0/mcpu-430x/mmpy-16/msr20/mc20/libcrt0.a(_copy_data.o)
 .data          0x0000000000000000        0x0 /opt/msp430-47-expr/bin/../lib/gcc/msp430/4.7.0/mcpu-430x/mmpy-16/msr20/mc20/libcrt0.a(_copy_data.o)
 .bss           0x0000000000000000        0x0 /opt/msp430-47-expr/bin/../lib/gcc/msp430/4.7.0/mcpu-430x/mmpy-16/msr20/mc20/libcrt0.a(_copy_data.o)
 .text          0x0000000000000000        0x0 /opt/msp430-47-expr/bin/../lib/gcc/msp430/4.7.0/mcpu-430x/mmpy-16/msr20/mc20/libcrt0.a(_clear_bss.o)
 .data          0x0000000000000000        0x0 /opt/msp430-47-expr/bin/../lib/gcc/msp430/4.7.0/mcpu-430x/mmpy-16/msr20/mc20/libcrt0.a(_clear_bss.o)
 .bss           0x0000000000000000        0x0 /opt/msp430-47-expr/bin/../lib/gcc/msp430/4.7.0/mcpu-430x/mmpy-16/msr20/mc20/libcrt0.a(_clear_bss.o)
 .text          0x0000000000000000        0x0 /opt/msp430-47-expr/bin/../lib/gcc/msp430/4.7.0/mcpu-430x/mmpy-16/msr20/mc20/libcrt0.a(__stop_progExec__.o)
 .data          0x0000000000000000        0x0 /opt/msp430-47-expr/bin/../lib/gcc/msp430/4.7.0/mcpu-430x/mmpy-16/msr20/mc20/libcrt0.a(__stop_progExec__.o)
 .bss           0x0000000000000000        0x0 /opt/msp430-47-expr/bin/../lib/gcc/msp430/4.7.0/mcpu-430x/mmpy-16/msr20/mc20/libcrt0.a(__stop_progExec__.o)
 .text          0x0000000000000000        0x0 /opt/msp430-47-expr/bin/../lib/gcc/msp430/4.7.0/mcpu-430x/mmpy-16/msr20/mc20/libcrt0.a(_endless_loop__.o)
 .data          0x0000000000000000        0x0 /opt/msp430-47-expr/bin/../lib/gcc/msp430/4.7.0/mcpu-430x/mmpy-16/msr20/mc20/libcrt0.a(_endless_loop__.o)
 .bss           0x0000000000000000        0x0 /opt/msp430-47-expr/bin/../lib/gcc/msp430/4.7.0/mcpu-430x/mmpy-16/msr20/mc20/libcrt0.a(_endless_loop__.o)
 .text          0x0000000000000000        0x0 /opt/msp430-47-expr/bin/../lib/gcc/msp430/4.7.0/mcpu-430x/mmpy-16/msr20/mc20/libcrt0.a(_unexpected_.o)
 .data          0x0000000000000000        0x0 /opt/msp430-47-expr/bin/../lib/gcc/msp430/4.7.0/mcpu-430x/mmpy-16/msr20/mc20/libcrt0.a(_unexpected_.o)
 .bss           0x0000000000000000        0x0 /opt/msp430-47-expr/bin/../lib/gcc/msp430/4.7.0/mcpu-430x/mmpy-16/msr20/mc20/libcrt0.a(_unexpected_.o)

Memory Configuration

Name             Origin             Length             Attributes
sfr              0x0000000000000000 0x0000000000000010
peripheral_8bit  0x0000000000000010 0x00000000000000f0
peripheral_16bit 0x0000000000000100 0x0000000000000100
ram_mirror       0x0000000000000200 0x0000000000000800 xw
infomem          0x0000000000001000 0x0000000000000100
infod            0x0000000000001000 0x0000000000000040
infoc            0x0000000000001040 0x0000000000000040
infob            0x0000000000001080 0x0000000000000040
infoa            0x00000000000010c0 0x0000000000000040
ram              0x0000000000001100 0x0000000000002000 xw
rom              0x0000000000003100 0x000000000000cebe xr
vectors          0x000000000000ffc0 0x0000000000000040
far_rom          0x0000000000010000 0x000000000000a000
bsl              0x0000000000000000 0x0000000000000000
ram2             0x0000000000000000 0x0000000000000000 xw
usbram           0x0000000000000000 0x0000000000000000 xw
*default*        0x0000000000000000 0xffffffffffffffff

Linker script and memory map

LOAD /opt/msp430-47-expr/bin/../lib/gcc/msp430/4.7.0/mcpu-430x/mmpy-16/msr20/mc20/crt0ivtbl32.o
                0x0000000000000041                __P1SEL2 = 0x41
                0x0000000000000045                __P5SEL2 = 0x45
LOAD udp-malicious-client-controller-aware-version-attack.co
LOAD obj_z1/contiki-z1-main.o
LOAD contiki-z1.a
LOAD /opt/msp430-47-expr/bin/../lib/gcc/msp430/4.7.0/mcpu-430x/mmpy-16/msr20/mc20/libgcc.a
LOAD /opt/msp430-47-expr/bin/../lib/gcc/msp430/4.7.0/../../../../msp430/lib/mcpu-430x/mmpy-16/msr20/mc20/libc.a
LOAD /opt/msp430-47-expr/bin/../lib/gcc/msp430/4.7.0/mcpu-430x/mmpy-16/msr20/mc20/libgcc.a
LOAD /opt/msp430-47-expr/bin/../lib/gcc/msp430/4.7.0/mcpu-430x/mmpy-16/msr20/mc20/libcrt0.a
                0x0000000000000040                PROVIDE (__info_segment_size, 0x40)
                0x0000000000001000                PROVIDE (__infod, 0x1000)
                0x0000000000001040                PROVIDE (__infoc, 0x1040)
                0x0000000000001080                PROVIDE (__infob, 0x1080)
                0x00000000000010c0                PROVIDE (__infoa, 0x10c0)
                0x0000000000000000                __IE1 = 0x0
                0x0000000000000002                __IFG1 = 0x2
                0x0000000000000001                __IE2 = 0x1
                0x0000000000000003                __IFG2 = 0x3
                0x0000000000000006                __UC1IE = 0x6
                0x0000000000000007                __UC1IFG = 0x7
                0x00000000000001a0                __ADC12CTL0 = 0x1a0
                0x00000000000001a2                __ADC12CTL1 = 0x1a2
                0x00000000000001a4                __ADC12IFG = 0x1a4
                0x00000000000001a6                __ADC12IE = 0x1a6
                0x00000000000001a8                __ADC12IV = 0x1a8
                0x0000000000000140                __ADC12MEM0 = 0x140
                0x0000000000000142                __ADC12MEM1 = 0x142
                0x0000000000000144                __ADC12MEM2 = 0x144
                0x0000000000000146                __ADC12MEM3 = 0x146
                0x0000000000000148                __ADC12MEM4 = 0x148
                0x000000000000014a                __ADC12MEM5 = 0x14a
                0x000000000000014c                __ADC12MEM6 = 0x14c
                0x000000000000014e                __ADC12MEM7 = 0x14e
                0x0000000000000150                __ADC12MEM8 = 0x150
                0x0000000000000152                __ADC12MEM9 = 0x152
                0x0000000000000154                __ADC12MEM10 = 0x154
                0x0000000000000156                __ADC12MEM11 = 0x156
                0x0000000000000158                __ADC12MEM12 = 0x158
                0x000000000000015a                __ADC12MEM13 = 0x15a
                0x000000000000015c                __ADC12MEM14 = 0x15c
                0x000000000000015e                __ADC12MEM15 = 0x15e
                0x0000000000000080                __ADC12MCTL0 = 0x80
                0x0000000000000081                __ADC12MCTL1 = 0x81
                0x0000000000000082                __ADC12MCTL2 = 0x82
                0x0000000000000083                __ADC12MCTL3 = 0x83
                0x0000000000000084                __ADC12MCTL4 = 0x84
                0x0000000000000085                __ADC12MCTL5 = 0x85
                0x0000000000000086                __ADC12MCTL6 = 0x86
                0x0000000000000087                __ADC12MCTL7 = 0x87
                0x0000000000000088                __ADC12MCTL8 = 0x88
                0x0000000000000089                __ADC12MCTL9 = 0x89
                0x000000000000008a                __ADC12MCTL10 = 0x8a
                0x000000000000008b                __ADC12MCTL11 = 0x8b
                0x000000000000008c                __ADC12MCTL12 = 0x8c
                0x000000000000008d                __ADC12MCTL13 = 0x8d
                0x000000000000008e                __ADC12MCTL14 = 0x8e
                0x000000000000008f                __ADC12MCTL15 = 0x8f
                0x0000000000000056                __DCOCTL = 0x56
                0x0000000000000057                __BCSCTL1 = 0x57
                0x0000000000000058                __BCSCTL2 = 0x58
                0x0000000000000053                __BCSCTL3 = 0x53
                0x0000000000000059                __CACTL1 = 0x59
                0x000000000000005a                __CACTL2 = 0x5a
                0x000000000000005b                __CAPD = 0x5b
                0x00000000000001c0                __DAC12_0CTL = 0x1c0
                0x00000000000001c2                __DAC12_1CTL = 0x1c2
                0x00000000000001c8                __DAC12_0DAT = 0x1c8
                0x00000000000001ca                __DAC12_1DAT = 0x1ca
                0x0000000000000122                __DMACTL0 = 0x122
                0x0000000000000124                __DMACTL1 = 0x124
                0x0000000000000126                __DMAIV = 0x126
                0x00000000000001d0                __DMA0CTL = 0x1d0
                0x00000000000001dc                __DMA1CTL = 0x1dc
                0x00000000000001e8                __DMA2CTL = 0x1e8
                0x00000000000001d2                __DMA0SA = 0x1d2
                0x00000000000001d2                __DMA0SAL = 0x1d2
                0x00000000000001d6                __DMA0DA = 0x1d6
                0x00000000000001d6                __DMA0DAL = 0x1d6
                0x00000000000001da                __DMA0SZ = 0x1da
                0x00000000000001de                __DMA1SA = 0x1de
                0x00000000000001de                __DMA1SAL = 0x1de
                0x00000000000001e2                __DMA1DA = 0x1e2
                0x00000000000001e2                __DMA1DAL = 0x1e2
                0x00000000000001e6                __DMA1SZ = 0x1e6
                0x00000000000001ea                __DMA2SA = 0x1ea
                0x00000000000001ea                __DMA2SAL = 0x1ea
                0x00000000000001ee                __DMA2DA = 0x1ee
                0x00000000000001ee                __DMA2DAL = 0x1ee
                0x00000000000001f2                __DMA2SZ = 0x1f2
                0x0000000000000128                __FCTL1 = 0x128
                0x000000000000012a                __FCTL2 = 0x12a
                0x000000000000012c                __FCTL3 = 0x12c
                0x00000000000001be                __FCTL4 = 0x1be
                0x0000000000000130                __MPY = 0x130
                0x0000000000000132                __MPYS = 0x132
                0x0000000000000134                __MAC = 0x134
                0x0000000000000136                __MACS = 0x136
                0x0000000000000138                __OP2 = 0x138
                0x000000000000013a                __RESLO = 0x13a
                0x000000000000013c                __RESHI = 0x13c
                0x000000000000013e                __SUMEXT = 0x13e
                0x0000000000000020                __P1IN = 0x20
                0x0000000000000021                __P1OUT = 0x21
                0x0000000000000022                __P1DIR = 0x22
                0x0000000000000023                __P1IFG = 0x23
                0x0000000000000024                __P1IES = 0x24
                0x0000000000000025                __P1IE = 0x25
                0x0000000000000026                __P1SEL = 0x26
                0x0000000000000027                __P1REN = 0x27
                0x0000000000000028                __P2IN = 0x28
                0x0000000000000029                __P2OUT = 0x29
                0x000000000000002a                __P2DIR = 0x2a
                0x000000000000002b                __P2IFG = 0x2b
                0x000000000000002c                __P2IES = 0x2c
                0x000000000000002d                __P2IE = 0x2d
                0x000000000000002e                __P2SEL = 0x2e
                0x000000000000002f                __P2REN = 0x2f
                0x0000000000000018                __P3IN = 0x18
                0x0000000000000019                __P3OUT = 0x19
                0x000000000000001a                __P3DIR = 0x1a
                0x000000000000001b                __P3SEL = 0x1b
                0x0000000000000010                __P3REN = 0x10
                0x000000000000001c                __P4IN = 0x1c
                0x000000000000001d                __P4OUT = 0x1d
                0x000000000000001e                __P4DIR = 0x1e
                0x000000000000001f                __P4SEL = 0x1f
                0x0000000000000011                __P4REN = 0x11
                0x0000000000000030                __P5IN = 0x30
                0x0000000000000031                __P5OUT = 0x31
                0x0000000000000032                __P5DIR = 0x32
                0x0000000000000033                __P5SEL = 0x33
                0x0000000000000012                __P5REN = 0x12
                0x0000000000000034                __P6IN = 0x34
                0x0000000000000035                __P6OUT = 0x35
                0x0000000000000036                __P6DIR = 0x36
                0x0000000000000037                __P6SEL = 0x37
                0x0000000000000013                __P6REN = 0x13
                0x0000000000000038                __P7IN = 0x38
                0x000000000000003a                __P7OUT = 0x3a
                0x000000000000003c                __P7DIR = 0x3c
                0x000000000000003e                __P7SEL = 0x3e
                0x0000000000000014                __P7REN = 0x14
                0x0000000000000039                __P8IN = 0x39
                0x000000000000003b                __P8OUT = 0x3b
                0x000000000000003d                __P8DIR = 0x3d
                0x000000000000003f                __P8SEL = 0x3f
                0x0000000000000015                __P8REN = 0x15
                0x0000000000000038                __PAIN = 0x38
                0x000000000000003a                __PAOUT = 0x3a
                0x000000000000003c                __PADIR = 0x3c
                0x000000000000003e                __PASEL = 0x3e
                0x0000000000000014                __PAREN = 0x14
                0x0000000000000055                __SVSCTL = 0x55
                0x000000000000012e                __TAIV = 0x12e
                0x0000000000000160                __TACTL = 0x160
                0x0000000000000162                __TACCTL0 = 0x162
                0x0000000000000164                __TACCTL1 = 0x164
                0x0000000000000166                __TACCTL2 = 0x166
                0x0000000000000170                __TAR = 0x170
                0x0000000000000172                __TACCR0 = 0x172
                0x0000000000000174                __TACCR1 = 0x174
                0x0000000000000176                __TACCR2 = 0x176
                0x000000000000011e                __TBIV = 0x11e
                0x0000000000000180                __TBCTL = 0x180
                0x0000000000000182                __TBCCTL0 = 0x182
                0x0000000000000184                __TBCCTL1 = 0x184
                0x0000000000000186                __TBCCTL2 = 0x186
                0x0000000000000188                __TBCCTL3 = 0x188
                0x000000000000018a                __TBCCTL4 = 0x18a
                0x000000000000018c                __TBCCTL5 = 0x18c
                0x000000000000018e                __TBCCTL6 = 0x18e
                0x0000000000000190                __TBR = 0x190
                0x0000000000000192                __TBCCR0 = 0x192
                0x0000000000000194                __TBCCR1 = 0x194
                0x0000000000000196                __TBCCR2 = 0x196
                0x0000000000000198                __TBCCR3 = 0x198
                0x000000000000019a                __TBCCR4 = 0x19a
                0x000000000000019c                __TBCCR5 = 0x19c
                0x000000000000019e                __TBCCR6 = 0x19e
                0x0000000000000060                __UCA0CTL0 = 0x60
                0x0000000000000061                __UCA0CTL1 = 0x61
                0x0000000000000062                __UCA0BR0 = 0x62
                0x0000000000000063                __UCA0BR1 = 0x63
                0x0000000000000064                __UCA0MCTL = 0x64
                0x0000000000000065                __UCA0STAT = 0x65
                0x0000000000000066                __UCA0RXBUF = 0x66
                0x0000000000000067                __UCA0TXBUF = 0x67
                0x000000000000005d                __UCA0ABCTL = 0x5d
                0x000000000000005e                __UCA0IRTCTL = 0x5e
                0x000000000000005f                __UCA0IRRCTL = 0x5f
                0x0000000000000068                __UCB0CTL0 = 0x68
                0x0000000000000069                __UCB0CTL1 = 0x69
                0x000000000000006a                __UCB0BR0 = 0x6a
                0x000000000000006b                __UCB0BR1 = 0x6b
                0x000000000000006c                __UCB0I2CIE = 0x6c
                0x000000000000006d                __UCB0STAT = 0x6d
                0x000000000000006e                __UCB0RXBUF = 0x6e
                0x000000000000006f                __UCB0TXBUF = 0x6f
                0x0000000000000118                __UCB0I2COA = 0x118
                0x000000000000011a                __UCB0I2CSA = 0x11a
                0x00000000000000d0                __UCA1CTL0 = 0xd0
                0x00000000000000d1                __UCA1CTL1 = 0xd1
                0x00000000000000d2                __UCA1BR0 = 0xd2
                0x00000000000000d3                __UCA1BR1 = 0xd3
                0x00000000000000d4                __UCA1MCTL = 0xd4
                0x00000000000000d5                __UCA1STAT = 0xd5
                0x00000000000000d6                __UCA1RXBUF = 0xd6
                0x00000000000000d7                __UCA1TXBUF = 0xd7
                0x00000000000000cd                __UCA1ABCTL = 0xcd
                0x00000000000000ce                __UCA1IRTCTL = 0xce
                0x00000000000000cf                __UCA1IRRCTL = 0xcf
                0x00000000000000d8                __UCB1CTL0 = 0xd8
                0x00000000000000d9                __UCB1CTL1 = 0xd9
                0x00000000000000da                __UCB1BR0 = 0xda
                0x00000000000000db                __UCB1BR1 = 0xdb
                0x00000000000000dc                __UCB1I2CIE = 0xdc
                0x00000000000000dd                __UCB1STAT = 0xdd
                0x00000000000000de                __UCB1RXBUF = 0xde
                0x00000000000000df                __UCB1TXBUF = 0xdf
                0x000000000000017c                __UCB1I2COA = 0x17c
                0x000000000000017e                __UCB1I2CSA = 0x17e
                0x0000000000000120                __WDTCTL = 0x120
                0x00000000000010c0                __TLV_CHECKSUM = 0x10c0
                0x00000000000010f6                __TLV_DCO_30_TAG = 0x10f6
                0x00000000000010f7                __TLV_DCO_30_LEN = 0x10f7
                0x00000000000010da                __TLV_ADC12_1_TAG = 0x10da
                0x00000000000010db                __TLV_ADC12_1_LEN = 0x10db
                0x00000000000010f8                __CALDCO_16MHZ = 0x10f8
                0x00000000000010f9                __CALBC1_16MHZ = 0x10f9
                0x00000000000010fa                __CALDCO_12MHZ = 0x10fa
                0x00000000000010fb                __CALBC1_12MHZ = 0x10fb
                0x00000000000010fc                __CALDCO_8MHZ = 0x10fc
                0x00000000000010fd                __CALBC1_8MHZ = 0x10fd
                0x00000000000010fe                __CALDCO_1MHZ = 0x10fe
                0x00000000000010ff                __CALBC1_1MHZ = 0x10ff

.hash
 *(.hash)

.dynsym
 *(.dynsym)

.dynstr
 *(.dynstr)

.gnu.version
 *(.gnu.version)

.gnu.version_d
 *(.gnu.version_d)

.gnu.version_r
 *(.gnu.version_r)

.rel.init
 *(.rel.init)

.rela.init
 *(.rela.init)

.rel.fini
 *(.rel.fini)

.rela.fini
 *(.rela.fini)

.rel.text
 *(.rel.text .rel.text.* .rel.gnu.linkonce.t.*)

.rela.text
 *(.rela.text .rela.text.* .rela.gnu.linkonce.t.*)

.rel.rodata
 *(.rel.rodata .rel.rodata.* .rel.gnu.linkonce.r.*)

.rela.rodata
 *(.rela.rodata .rela.rodata.* .rela.gnu.linkonce.r.*)

.rel.data
 *(.rel.data .rel.data.* .rel.gnu.linkonce.d.*)

.rela.data
 *(.rela.data .rela.data.* .rela.gnu.linkonce.d.*)

.rel.bss
 *(.rel.bss .rel.bss.* .rel.gnu.linkonce.b.*)

.rela.bss
 *(.rela.bss .rela.bss.* .rela.gnu.linkonce.b.*)

.rel.ctors
 *(.rel.ctors)

.rela.ctors
 *(.rela.ctors)

.rel.dtors
 *(.rel.dtors)

.rela.dtors
 *(.rela.dtors)

.rel.got
 *(.rel.got)

.rela.got
 *(.rela.got)

.rel.plt
 *(.rel.plt)

.rela.plt
 *(.rela.plt)

.text           0x0000000000003100     0xade8
                0x0000000000003100                . = ALIGN (0x2)
 *(.init .init.*)
 *(.init0)
 .init0         0x0000000000003100        0x0 /opt/msp430-47-expr/bin/../lib/gcc/msp430/4.7.0/mcpu-430x/mmpy-16/msr20/mc20/libcrt0.a(_reset_vector__.o)
                0x0000000000003100                _reset_vector__
 *(.init1)
 .init1         0x0000000000003100        0xc /opt/msp430-47-expr/bin/../lib/gcc/msp430/4.7.0/mcpu-430x/mmpy-16/msr20/mc20/libcrt0.a(__watchdog_support.o)
                0x0000000000003100                __watchdog_support
 *(.init2)
 .init2         0x000000000000310c        0x4 /opt/msp430-47-expr/bin/../lib/gcc/msp430/4.7.0/mcpu-430x/mmpy-16/msr20/mc20/libcrt0.a(__init_stack.o)
                0x000000000000310c                __init_stack
 *(.init3)
 .init3         0x0000000000003110        0x0 /opt/msp430-47-expr/bin/../lib/gcc/msp430/4.7.0/mcpu-430x/mmpy-16/msr20/mc20/libcrt0.a(__low_level_init.o)
                0x0000000000003110                __low_level_init
 *(.init4)
 .init4         0x0000000000003110       0x18 /opt/msp430-47-expr/bin/../lib/gcc/msp430/4.7.0/mcpu-430x/mmpy-16/msr20/mc20/libcrt0.a(_copy_data.o)
                0x0000000000003110                __do_copy_data
 .init4         0x0000000000003128       0x16 /opt/msp430-47-expr/bin/../lib/gcc/msp430/4.7.0/mcpu-430x/mmpy-16/msr20/mc20/libcrt0.a(_clear_bss.o)
                0x0000000000003128                __do_clear_bss
 *(.init5)
 *(.init6)
 *(.init7)
 *(.init8)
 *(.init9)
 .init9         0x000000000000313e      0x350 obj_z1/contiki-z1-main.o
                0x000000000000313e                main
 *(.fini9)
 .fini9         0x000000000000348e        0x0 /opt/msp430-47-expr/bin/../lib/gcc/msp430/4.7.0/mcpu-430x/mmpy-16/msr20/mc20/libcrt0.a(__stop_progExec__.o)
                0x000000000000348e                __stop_progExec__
 *(.fini8)
 *(.fini7)
 *(.fini6)
 *(.fini5)
 *(.fini4)
 *(.fini3)
 *(.fini2)
 *(.fini1)
 *(.fini0)
 .fini0         0x000000000000348e        0x6 /opt/msp430-47-expr/bin/../lib/gcc/msp430/4.7.0/mcpu-430x/mmpy-16/msr20/mc20/libcrt0.a(_endless_loop__.o)
                0x000000000000348e                _endless_loop__
 *(.fini .fini.*)
                0x0000000000003494                . = ALIGN (0x2)
                0x0000000000003494                __ctors_start = .
 *(.ctors)
                0x0000000000003494                __ctors_end = .
                0x0000000000003494                __dtors_start = .
 *(.dtors)
                0x0000000000003494                __dtors_end = .
                0x0000000000003494                . = ALIGN (0x2)
 *(.text .text.* .gnu.linkonce.t.*)
 .text          0x0000000000003494        0x4 /opt/msp430-47-expr/bin/../lib/gcc/msp430/4.7.0/mcpu-430x/mmpy-16/msr20/mc20/crt0ivtbl32.o
                0x0000000000003494                __isr_14
                0x0000000000003494                __isr_4
                0x0000000000003494                __isr_29
                0x0000000000003494                __isr_11
                0x0000000000003494                __isr_5
                0x0000000000003494                __isr_2
                0x0000000000003494                __isr_10
                0x0000000000003494                __isr_7
                0x0000000000003494                __isr_0
                0x0000000000003494                __isr_28
                0x0000000000003494                __isr_8
                0x0000000000003494                __isr_20
                0x0000000000003494                __isr_3
                0x0000000000003494                __isr_12
                0x0000000000003494                __isr_13
                0x0000000000003494                __isr_27
                0x0000000000003494                __isr_9
                0x0000000000003494                __isr_30
                0x0000000000003494                __isr_6
                0x0000000000003494                __isr_22
                0x0000000000003494                __isr_1
                0x0000000000003494                __isr_15
                0x0000000000003494                __isr_21
 .text.libgcc   0x0000000000003498       0x26 /opt/msp430-47-expr/bin/../lib/gcc/msp430/4.7.0/mcpu-430x/mmpy-16/msr20/mc20/libgcc.a(_mulsi3.o)
                0x0000000000003498                __mulsi3
 .text.libgcc   0x00000000000034be       0x22 /opt/msp430-47-expr/bin/../lib/gcc/msp430/4.7.0/mcpu-430x/mmpy-16/msr20/mc20/libgcc.a(_udivmod16.o)
                0x00000000000034be                __udivhi3
                0x00000000000034be                __ext_udivmod16
                0x00000000000034d8                __umodhi3
 .text.libgcc   0x00000000000034e0       0x3a /opt/msp430-47-expr/bin/../lib/gcc/msp430/4.7.0/mcpu-430x/mmpy-16/msr20/mc20/libgcc.a(_divmod16.o)
                0x00000000000034e0                __ext_divmod16
                0x00000000000034e0                __divhi3
                0x0000000000003512                __modhi3
 .text.libgcc   0x000000000000351a       0x38 /opt/msp430-47-expr/bin/../lib/gcc/msp430/4.7.0/mcpu-430x/mmpy-16/msr20/mc20/libgcc.a(_udivmod32.o)
                0x000000000000351a                __udivsi3
                0x000000000000351a                __ext_udivmod32
                0x0000000000003548                __umodsi3
 .text.libgcc   0x0000000000003552       0x4c /opt/msp430-47-expr/bin/../lib/gcc/msp430/4.7.0/mcpu-430x/mmpy-16/msr20/mc20/libgcc.a(_divmod32.o)
                0x0000000000003552                __ext_divmod32
                0x0000000000003552                __divsi3
                0x0000000000003594                __modsi3
 .text.libgcc   0x000000000000359e       0xbc /opt/msp430-47-expr/bin/../lib/gcc/msp430/4.7.0/mcpu-430x/mmpy-16/msr20/mc20/libgcc.a(_udivmod64.o)
                0x000000000000359e                __xabi_udivmod64
                0x00000000000035f0                __udivdi3
                0x000000000000360a                __umoddi3
                0x000000000000362c                __udivmoddi4
 .text.crt0     0x000000000000365a        0x2 /opt/msp430-47-expr/bin/../lib/gcc/msp430/4.7.0/mcpu-430x/mmpy-16/msr20/mc20/libcrt0.a(_unexpected_.o)
                0x000000000000365a                _unexpected_
 *(.near.text .near.text.*)
 .near.text.watchdog_interrupt
                0x000000000000365c        0x6 contiki-z1.a(watchdog.o)
                0x000000000000365c                __isr_26
                0x000000000000365c                watchdog_interrupt
 .near.text.uart0_rx_interrupt
                0x0000000000003662       0x64 contiki-z1.a(uart0.o)
                0x0000000000003662                __isr_23
                0x0000000000003662                uart0_rx_interrupt
 .near.text.port1_isr
                0x00000000000036c6       0xbe contiki-z1.a(adxl345.o)
                0x00000000000036c6                port1_isr
                0x00000000000036c6                __isr_18
 .near.text.timera1
                0x0000000000003784      0x10a contiki-z1.a(clock.o)
                0x0000000000003784                __isr_24
                0x0000000000003784                timera1
 .near.text.timera0
                0x000000000000388e       0x5c contiki-z1.a(rtimer-arch.o)
                0x000000000000388e                __isr_25
                0x000000000000388e                timera0
 .near.text.i2c_tx_interrupt
                0x00000000000038ea       0x84 contiki-z1.a(i2cmaster.o)
                0x00000000000038ea                __isr_16
                0x00000000000038ea                i2c_tx_interrupt
 .near.text.i2c_rx_interrupt
                0x000000000000396e       0x14 contiki-z1.a(i2cmaster.o)
                0x000000000000396e                i2c_rx_interrupt
                0x000000000000396e                __isr_17
 .near.text.irq_p2
                0x0000000000003982       0x76 contiki-z1.a(button-sensor.o)
                0x0000000000003982                irq_p2
                0x0000000000003982                __isr_19
 .any.text.get32
                0x00000000000039f8       0x3e udp-malicious-client-controller-aware-version-attack.co
 .any.text.set32
                0x0000000000003a36       0x2a udp-malicious-client-controller-aware-version-attack.co
 .any.text.get16
                0x0000000000003a60        0xe udp-malicious-client-controller-aware-version-attack.co
 .any.text.set16
                0x0000000000003a6e       0x10 udp-malicious-client-controller-aware-version-attack.co
 .any.text.dao_ack_input
                0x0000000000003a7e        0xa udp-malicious-client-controller-aware-version-attack.co
 .any.text.send_packet
                0x0000000000003a88       0x5a udp-malicious-client-controller-aware-version-attack.co
 .any.text.dio_input
                0x0000000000003ae2      0x280 udp-malicious-client-controller-aware-version-attack.co
 .any.text.rpl_icmp6_update_nbr_table
                0x0000000000003d62       0x28 udp-malicious-client-controller-aware-version-attack.co
                0x0000000000003d62                rpl_icmp6_update_nbr_table
 .any.text.dao_input
                0x0000000000003d8a      0x2c2 udp-malicious-client-controller-aware-version-attack.co
 .any.text.dis_output
                0x000000000000404c       0x50 udp-malicious-client-controller-aware-version-attack.co
                0x000000000000404c                dis_output
 .any.text.dio_output
                0x000000000000409c      0x27e udp-malicious-client-controller-aware-version-attack.co
                0x000000000000409c                dio_output
 .any.text.dis_input
                0x000000000000431a       0x3e udp-malicious-client-controller-aware-version-attack.co
 .any.text.dao_output_target
                0x0000000000004358       0xf6 udp-malicious-client-controller-aware-version-attack.co
                0x0000000000004358                dao_output_target
 .any.text.dao_output
                0x000000000000444e       0xc2 udp-malicious-client-controller-aware-version-attack.co
                0x000000000000444e                dao_output
 .any.text.rpl_icmp6_register_handlers
                0x0000000000004510       0x22 udp-malicious-client-controller-aware-version-attack.co
                0x0000000000004510                rpl_icmp6_register_handlers
 .any.text.process_thread_udp_client_process
                0x0000000000004532      0x3ba udp-malicious-client-controller-aware-version-attack.co
 .any.text.init_platform
                0x00000000000048ec        0xc contiki-z1.a(contiki-z1-plat)
                0x00000000000048ec                init_platform
 .any.text.msp430_init_dco
                0x00000000000048f8       0x28 contiki-z1.a(msp430.o)
                0x00000000000048f8                msp430_init_dco
 .any.text.splhigh_
                0x0000000000004920        0x8 contiki-z1.a(msp430.o)
                0x0000000000004920                splhigh_
 .any.text.msp430_sync_dco
                0x0000000000004928       0x6e contiki-z1.a(msp430.o)
                0x0000000000004928                msp430_sync_dco
 .any.text.msp430_cpu_init
                0x0000000000004996       0x2e contiki-z1.a(msp430.o)
                0x0000000000004996                msp430_cpu_init
 .any.text.show_leds
                0x00000000000049c4       0xe8 contiki-z1.a(leds.o)
 .any.text.leds_init
                0x0000000000004aac        0xa contiki-z1.a(leds.o)
                0x0000000000004aac                leds_init
 .any.text.leds_on
                0x0000000000004ab6        0xa contiki-z1.a(leds.o)
                0x0000000000004ab6                leds_on
 .any.text.leds_off
                0x0000000000004ac0        0xe contiki-z1.a(leds.o)
                0x0000000000004ac0                leds_off
 .any.text.watchdog_start
                0x0000000000004ace       0x14 contiki-z1.a(watchdog.o)
                0x0000000000004ace                watchdog_start
 .any.text.watchdog_periodic
                0x0000000000004ae2       0x12 contiki-z1.a(watchdog.o)
                0x0000000000004ae2                watchdog_periodic
 .any.text.watchdog_stop
                0x0000000000004af4       0x16 contiki-z1.a(watchdog.o)
                0x0000000000004af4                watchdog_stop
 .any.text.watchdog_init
                0x0000000000004b0a       0x12 contiki-z1.a(watchdog.o)
                0x0000000000004b0a                watchdog_init
 .any.text.wait_ready
                0x0000000000004b1c       0x46 contiki-z1.a(xmem.o)
 .any.text.xmem_init
                0x0000000000004b62       0x1e contiki-z1.a(xmem.o)
                0x0000000000004b62                xmem_init
 .any.text.xmem_pread
                0x0000000000004b80       0xc2 contiki-z1.a(xmem.o)
                0x0000000000004b80                xmem_pread
 .any.text.spi_init
                0x0000000000004c42       0x32 contiki-z1.a(spi.o)
                0x0000000000004c42                spi_init
 .any.text.get_object
                0x0000000000004c74        0x4 contiki-z1.a(cc2420.o)
 .any.text.set_object
                0x0000000000004c78        0x4 contiki-z1.a(cc2420.o)
 .any.text.strobe
                0x0000000000004c7c       0x1a contiki-z1.a(cc2420.o)
 .any.text.getreg
                0x0000000000004c96       0x46 contiki-z1.a(cc2420.o)
 .any.text.setreg
                0x0000000000004cdc       0x44 contiki-z1.a(cc2420.o)
 .any.text.write_ram
                0x0000000000004d20       0x72 contiki-z1.a(cc2420.o)
 .any.text.write_fifo_buf
                0x0000000000004d92       0x38 contiki-z1.a(cc2420.o)
 .any.text.get_status
                0x0000000000004dca       0x1e contiki-z1.a(cc2420.o)
 .any.text.set_txpower
                0x0000000000004de8       0x24 contiki-z1.a(cc2420.o)
 .any.text.cc2420_receiving_packet
                0x0000000000004e0c        0xa contiki-z1.a(cc2420.o)
 .any.text.pending_packet
                0x0000000000004e16        0xa contiki-z1.a(cc2420.o)
 .any.text.on   0x0000000000004e20       0x26 contiki-z1.a(cc2420.o)
 .any.text.wait_for_transmission
                0x0000000000004e46       0x22 contiki-z1.a(cc2420.o)
 .any.text.wait_for_status
                0x0000000000004e68       0x24 contiki-z1.a(cc2420.o)
 .any.text.getrxdata
                0x0000000000004e8c       0x4c contiki-z1.a(cc2420.o)
 .any.text.flushrx
                0x0000000000004ed8       0x1a contiki-z1.a(cc2420.o)
 .any.text.off  0x0000000000004ef2       0x5a contiki-z1.a(cc2420.o)
 .any.text.RELEASE_LOCK
                0x0000000000004f4c       0x28 contiki-z1.a(cc2420.o)
 .any.text.set_frame_filtering
                0x0000000000004f74       0x30 contiki-z1.a(cc2420.o)
 .any.text.set_auto_ack
                0x0000000000004fa4       0x30 contiki-z1.a(cc2420.o)
 .any.text.set_poll_mode
                0x0000000000004fd4       0x2c contiki-z1.a(cc2420.o)
 .any.text.cc2420_prepare
                0x0000000000005000       0x38 contiki-z1.a(cc2420.o)
 .any.text.cc2420_on
                0x0000000000005038       0x22 contiki-z1.a(cc2420.o)
                0x0000000000005038                cc2420_on
 .any.text.cc2420_off
                0x000000000000505a       0x30 contiki-z1.a(cc2420.o)
                0x000000000000505a                cc2420_off
 .any.text.cc2420_cca
                0x000000000000508a       0x54 contiki-z1.a(cc2420.o)
 .any.text.cc2420_read
                0x00000000000050de       0xb8 contiki-z1.a(cc2420.o)
 .any.text.process_thread_cc2420_process
                0x0000000000005196       0x5c contiki-z1.a(cc2420.o)
 .any.text.cc2420_set_channel
                0x00000000000051f2       0x3a contiki-z1.a(cc2420.o)
                0x00000000000051f2                cc2420_set_channel
 .any.text.cc2420_set_pan_addr
                0x000000000000522c       0x4c contiki-z1.a(cc2420.o)
                0x000000000000522c                cc2420_set_pan_addr
 .any.text.cc2420_interrupt
                0x0000000000005278       0x16 contiki-z1.a(cc2420.o)
                0x0000000000005278                cc2420_interrupt
 .any.text.cc2420_set_txpower
                0x000000000000528e        0xe contiki-z1.a(cc2420.o)
                0x000000000000528e                cc2420_set_txpower
 .any.text.cc2420_get_txpower
                0x000000000000529c       0x1e contiki-z1.a(cc2420.o)
                0x000000000000529c                cc2420_get_txpower
 .any.text.cc2420_transmit
                0x00000000000052ba      0x10e contiki-z1.a(cc2420.o)
 .any.text.cc2420_send
                0x00000000000053c8       0x12 contiki-z1.a(cc2420.o)
 .any.text.cc2420_rssi
                0x00000000000053da       0x48 contiki-z1.a(cc2420.o)
                0x00000000000053da                cc2420_rssi
 .any.text.get_value
                0x0000000000005422      0x104 contiki-z1.a(cc2420.o)
 .any.text.cc2420_set_cca_threshold
                0x0000000000005526       0x16 contiki-z1.a(cc2420.o)
                0x0000000000005526                cc2420_set_cca_threshold
 .any.text.set_value
                0x000000000000553c       0xb2 contiki-z1.a(cc2420.o)
 .any.text.cc2420_init
                0x00000000000055ee       0xea contiki-z1.a(cc2420.o)
                0x00000000000055ee                cc2420_init
 .any.text.cc2420_arch_init
                0x00000000000056d8       0x1a contiki-z1.a(cc2420-arch.o)
                0x00000000000056d8                cc2420_arch_init
 .any.text.node_id_restore
                0x00000000000056f2       0x4c contiki-z1.a(node-id.o)
                0x00000000000056f2                node_id_restore
 .any.text.process_thread_sensors_process
                0x000000000000573e       0xc2 contiki-z1.a(sensors.o)
 .any.text.sensors_changed
                0x0000000000005800       0x2a contiki-z1.a(sensors.o)
                0x0000000000005800                sensors_changed
 .any.text.uart0_active
                0x000000000000582a        0xe contiki-z1.a(uart0.o)
                0x000000000000582a                uart0_active
 .any.text.uart0_writeb
                0x0000000000005838       0x16 contiki-z1.a(uart0.o)
                0x0000000000005838                uart0_writeb
 .any.text.uart0_init
                0x000000000000584e       0x4e contiki-z1.a(uart0.o)
                0x000000000000584e                uart0_init
 .any.text.putchar
                0x000000000000589c       0x10 contiki-z1.a(uart0-putchar.o)
                0x000000000000589c                putchar
 .any.text.status
                0x00000000000058ac       0x12 contiki-z1.a(adxl345.o)
 .any.text.accm_write_reg
                0x00000000000058be       0x2e contiki-z1.a(adxl345.o)
 .any.text.accm_write_stream
                0x00000000000058ec       0x2a contiki-z1.a(adxl345.o)
 .any.text.accm_read_reg
                0x0000000000005916       0x54 contiki-z1.a(adxl345.o)
 .any.text.process_thread_accmeter_process
                0x000000000000596a       0x56 contiki-z1.a(adxl345.o)
 .any.text.accm_read_axis.part.0
                0x00000000000059c0       0x5a contiki-z1.a(adxl345.o)
 .any.text.value
                0x0000000000005a1a       0x1e contiki-z1.a(adxl345.o)
 .any.text.accm_init
                0x0000000000005a38       0x78 contiki-z1.a(adxl345.o)
                0x0000000000005a38                accm_init
 .any.text.accm_stop
                0x0000000000005ab0       0x32 contiki-z1.a(adxl345.o)
                0x0000000000005ab0                accm_stop
 .any.text.configure
                0x0000000000005ae2       0x26 contiki-z1.a(adxl345.o)
 .any.text.status
                0x0000000000005b08       0x12 contiki-z1.a(tmp102.o)
 .any.text.tmp102_init
                0x0000000000005b1a       0x24 contiki-z1.a(tmp102.o)
                0x0000000000005b1a                tmp102_init
 .any.text.tmp102_stop
                0x0000000000005b3e        0xa contiki-z1.a(tmp102.o)
                0x0000000000005b3e                tmp102_stop
 .any.text.configure
                0x0000000000005b48       0x26 contiki-z1.a(tmp102.o)
 .any.text.tmp102_read_reg
                0x0000000000005b6e       0x5e contiki-z1.a(tmp102.o)
                0x0000000000005b6e                tmp102_read_reg
 .any.text.tmp102_read_temp_x100
                0x0000000000005bcc       0x58 contiki-z1.a(tmp102.o)
                0x0000000000005bcc                tmp102_read_temp_x100
 .any.text.value
                0x0000000000005c24        0x6 contiki-z1.a(tmp102.o)
 .any.text.clock_time
                0x0000000000005c2a       0x1a contiki-z1.a(clock.o)
                0x0000000000005c2a                clock_time
 .any.text.clock_init
                0x0000000000005c44       0x28 contiki-z1.a(clock.o)
                0x0000000000005c44                clock_init
 .any.text.clock_delay
                0x0000000000005c6c        0xc contiki-z1.a(clock.o)
                0x0000000000005c6c                clock_delay
 .any.text.clock_wait
                0x0000000000005c78       0x24 contiki-z1.a(clock.o)
                0x0000000000005c78                clock_wait
 .any.text.clock_seconds
                0x0000000000005c9c       0x1a contiki-z1.a(clock.o)
                0x0000000000005c9c                clock_seconds
 .any.text.leds_arch_init
                0x0000000000005cb6        0xe contiki-z1.a(leds-arch.o)
                0x0000000000005cb6                leds_arch_init
 .any.text.leds_arch_set
                0x0000000000005cc4       0x38 contiki-z1.a(leds-arch.o)
                0x0000000000005cc4                leds_arch_set
 .any.text.rtimer_arch_init
                0x0000000000005cfc        0xe contiki-z1.a(rtimer-arch.o)
                0x0000000000005cfc                rtimer_arch_init
 .any.text.rtimer_arch_now
                0x0000000000005d0a        0xe contiki-z1.a(rtimer-arch.o)
                0x0000000000005d0a                rtimer_arch_now
 .any.text.rtimer_arch_schedule
                0x0000000000005d18        0x6 contiki-z1.a(rtimer-arch.o)
                0x0000000000005d18                rtimer_arch_schedule
 .any.text.process_thread_ctimer_process
                0x0000000000005d1e       0xa0 contiki-z1.a(ctimer.o)
 .any.text.ctimer_init
                0x0000000000005dbe       0x18 contiki-z1.a(ctimer.o)
                0x0000000000005dbe                ctimer_init
 .any.text.ctimer_set_with_process
                0x0000000000005dd6       0x4a contiki-z1.a(ctimer.o)
                0x0000000000005dd6                ctimer_set_with_process
 .any.text.ctimer_set
                0x0000000000005e20       0x10 contiki-z1.a(ctimer.o)
                0x0000000000005e20                ctimer_set
 .any.text.ctimer_reset
                0x0000000000005e30       0x2c contiki-z1.a(ctimer.o)
                0x0000000000005e30                ctimer_reset
 .any.text.ctimer_restart
                0x0000000000005e5c       0x2c contiki-z1.a(ctimer.o)
                0x0000000000005e5c                ctimer_restart
 .any.text.ctimer_stop
                0x0000000000005e88       0x28 contiki-z1.a(ctimer.o)
                0x0000000000005e88                ctimer_stop
 .any.text.autostart_start
                0x0000000000005eb0       0x16 contiki-z1.a(autostart.o)
                0x0000000000005eb0                autostart_start
 .any.text.energest_init
                0x0000000000005ec6       0x24 contiki-z1.a(energest.o)
                0x0000000000005ec6                energest_init
 .any.text.energest_type_time
                0x0000000000005eea       0x3c contiki-z1.a(energest.o)
                0x0000000000005eea                energest_type_time
 .any.text.energest_type_set
                0x0000000000005f26        0xc contiki-z1.a(energest.o)
                0x0000000000005f26                energest_type_set
 .any.text.energest_flush
                0x0000000000005f32       0x38 contiki-z1.a(energest.o)
                0x0000000000005f32                energest_flush
 .any.text.update_time
                0x0000000000005f6a       0x70 contiki-z1.a(etimer.o)
 .any.text.etimer_request_poll
                0x0000000000005fda        0xa contiki-z1.a(etimer.o)
                0x0000000000005fda                etimer_request_poll
 .any.text.process_thread_etimer_process
                0x0000000000005fe4       0xc4 contiki-z1.a(etimer.o)
 .any.text.add_timer
                0x00000000000060a8       0x40 contiki-z1.a(etimer.o)
 .any.text.etimer_set
                0x00000000000060e8       0x12 contiki-z1.a(etimer.o)
                0x00000000000060e8                etimer_set
 .any.text.etimer_reset
                0x00000000000060fa       0x12 contiki-z1.a(etimer.o)
                0x00000000000060fa                etimer_reset
 .any.text.etimer_restart
                0x000000000000610c       0x12 contiki-z1.a(etimer.o)
                0x000000000000610c                etimer_restart
 .any.text.etimer_expired
                0x000000000000611e        0xe contiki-z1.a(etimer.o)
                0x000000000000611e                etimer_expired
 .any.text.etimer_expiration_time
                0x000000000000612c       0x14 contiki-z1.a(etimer.o)
                0x000000000000612c                etimer_expiration_time
 .any.text.etimer_pending
                0x0000000000006140        0xc contiki-z1.a(etimer.o)
                0x0000000000006140                etimer_pending
 .any.text.etimer_next_expiration_time
                0x000000000000614c       0x16 contiki-z1.a(etimer.o)
                0x000000000000614c                etimer_next_expiration_time
 .any.text.etimer_stop
                0x0000000000006162       0x3e contiki-z1.a(etimer.o)
                0x0000000000006162                etimer_stop
 .any.text.call_process
                0x00000000000061a0       0x40 contiki-z1.a(process.o)
 .any.text.exit_process
                0x00000000000061e0       0x88 contiki-z1.a(process.o)
 .any.text.do_poll
                0x0000000000006268       0x30 contiki-z1.a(process.o)
 .any.text.process_alloc_event
                0x0000000000006298        0xe contiki-z1.a(process.o)
                0x0000000000006298                process_alloc_event
 .any.text.process_init
                0x00000000000062a6       0x1c contiki-z1.a(process.o)
                0x00000000000062a6                process_init
 .any.text.process_run
                0x00000000000062c2       0x8c contiki-z1.a(process.o)
                0x00000000000062c2                process_run
 .any.text.process_nevents
                0x000000000000634e        0xe contiki-z1.a(process.o)
                0x000000000000634e                process_nevents
 .any.text.process_post
                0x000000000000635c       0x4a contiki-z1.a(process.o)
                0x000000000000635c                process_post
 .any.text.process_post_synch
                0x00000000000063a6       0x12 contiki-z1.a(process.o)
                0x00000000000063a6                process_post_synch
 .any.text.process_start
                0x00000000000063b8       0x36 contiki-z1.a(process.o)
                0x00000000000063b8                process_start
 .any.text.process_poll
                0x00000000000063ee       0x18 contiki-z1.a(process.o)
                0x00000000000063ee                process_poll
 .any.text.rtimer_init
                0x0000000000006406        0x6 contiki-z1.a(rtimer.o)
                0x0000000000006406                rtimer_init
 .any.text.rtimer_run_next
                0x000000000000640c       0x26 contiki-z1.a(rtimer.o)
                0x000000000000640c                rtimer_run_next
 .any.text.timer_set
                0x0000000000006432       0x1c contiki-z1.a(timer.o)
                0x0000000000006432                timer_set
 .any.text.timer_reset
                0x000000000000644e        0xe contiki-z1.a(timer.o)
                0x000000000000644e                timer_reset
 .any.text.timer_restart
                0x000000000000645c       0x14 contiki-z1.a(timer.o)
                0x000000000000645c                timer_restart
 .any.text.timer_expired
                0x0000000000006470       0x2a contiki-z1.a(timer.o)
                0x0000000000006470                timer_expired
 .any.text.list_init
                0x000000000000649a        0x6 contiki-z1.a(list.o)
                0x000000000000649a                list_init
 .any.text.list_head
                0x00000000000064a0        0x4 contiki-z1.a(list.o)
                0x00000000000064a0                list_head
 .any.text.list_tail
                0x00000000000064a4       0x12 contiki-z1.a(list.o)
                0x00000000000064a4                list_tail
 .any.text.list_remove
                0x00000000000064b6       0x34 contiki-z1.a(list.o)
                0x00000000000064b6                list_remove
 .any.text.list_push
                0x00000000000064ea       0x16 contiki-z1.a(list.o)
                0x00000000000064ea                list_push
 .any.text.list_add
                0x0000000000006500       0x26 contiki-z1.a(list.o)
                0x0000000000006500                list_add
 .any.text.list_length
                0x0000000000006526       0x10 contiki-z1.a(list.o)
                0x0000000000006526                list_length
 .any.text.list_item_next
                0x0000000000006536        0xc contiki-z1.a(list.o)
                0x0000000000006536                list_item_next
 .any.text.random_init
                0x0000000000006542        0x6 contiki-z1.a(random.o)
                0x0000000000006542                random_init
 .any.text.random_rand
                0x0000000000006548        0x6 contiki-z1.a(random.o)
                0x0000000000006548                random_rand
 .any.text.echo_reply_input
                0x000000000000654e       0xaa contiki-z1.a(uip-icmp6.o)
 .any.text.echo_request_input
                0x00000000000065f8       0xce contiki-z1.a(uip-icmp6.o)
 .any.text.uip_icmp6_input
                0x00000000000066c6       0x44 contiki-z1.a(uip-icmp6.o)
                0x00000000000066c6                uip_icmp6_input
 .any.text.uip_icmp6_register_input_handler
                0x000000000000670a        0xc contiki-z1.a(uip-icmp6.o)
                0x000000000000670a                uip_icmp6_register_input_handler
 .any.text.uip_icmp6_error_output
                0x0000000000006716      0x172 contiki-z1.a(uip-icmp6.o)
                0x0000000000006716                uip_icmp6_error_output
 .any.text.uip_icmp6_send
                0x0000000000006888       0x90 contiki-z1.a(uip-icmp6.o)
                0x0000000000006888                uip_icmp6_send
 .any.text.uip_icmp6_init
                0x0000000000006918       0x12 contiki-z1.a(uip-icmp6.o)
                0x0000000000006918                uip_icmp6_init
 .any.text.uip_ds6_list_loop
                0x000000000000692a       0x66 contiki-z1.a(uip-ds6.o)
                0x000000000000692a                uip_ds6_list_loop
 .any.text.uip_ds6_prefix_add
                0x0000000000006990       0x70 contiki-z1.a(uip-ds6.o)
                0x0000000000006990                uip_ds6_prefix_add
 .any.text.uip_ds6_is_addr_onlink
                0x0000000000006a00       0x42 contiki-z1.a(uip-ds6.o)
                0x0000000000006a00                uip_ds6_is_addr_onlink
 .any.text.uip_ds6_addr_lookup
                0x0000000000006a42       0x2a contiki-z1.a(uip-ds6.o)
                0x0000000000006a42                uip_ds6_addr_lookup
 .any.text.uip_ds6_get_link_local
                0x0000000000006a6c       0x3e contiki-z1.a(uip-ds6.o)
                0x0000000000006a6c                uip_ds6_get_link_local
 .any.text.uip_ds6_maddr_add
                0x0000000000006aaa       0x48 contiki-z1.a(uip-ds6.o)
                0x0000000000006aaa                uip_ds6_maddr_add
 .any.text.uip_ds6_addr_add
                0x0000000000006af2       0xb4 contiki-z1.a(uip-ds6.o)
                0x0000000000006af2                uip_ds6_addr_add
 .any.text.uip_ds6_maddr_rm
                0x0000000000006ba6        0xa contiki-z1.a(uip-ds6.o)
                0x0000000000006ba6                uip_ds6_maddr_rm
 .any.text.uip_ds6_maddr_lookup
                0x0000000000006bb0       0x2a contiki-z1.a(uip-ds6.o)
                0x0000000000006bb0                uip_ds6_maddr_lookup
 .any.text.uip_ds6_addr_rm
                0x0000000000006bda       0x54 contiki-z1.a(uip-ds6.o)
                0x0000000000006bda                uip_ds6_addr_rm
 .any.text.uip_ds6_periodic
                0x0000000000006c2e       0x46 contiki-z1.a(uip-ds6.o)
                0x0000000000006c2e                uip_ds6_periodic
 .any.text.uip_ds6_set_addr_iid
                0x0000000000006c74       0x14 contiki-z1.a(uip-ds6.o)
                0x0000000000006c74                uip_ds6_set_addr_iid
 .any.text.get_match_length
                0x0000000000006c88       0x3c contiki-z1.a(uip-ds6.o)
                0x0000000000006c88                get_match_length
 .any.text.uip_ds6_select_src
                0x0000000000006cc4       0x9a contiki-z1.a(uip-ds6.o)
                0x0000000000006cc4                uip_ds6_select_src
 .any.text.uip_ds6_compute_reachable_time
                0x0000000000006d5e       0x36 contiki-z1.a(uip-ds6.o)
                0x0000000000006d5e                uip_ds6_compute_reachable_time
 .any.text.uip_ds6_init
                0x0000000000006d94      0x138 contiki-z1.a(uip-ds6.o)
                0x0000000000006d94                uip_ds6_init
 .any.text.call_route_callback
                0x0000000000006ecc       0x40 contiki-z1.a(uip-ds6-route.o)
 .any.text.uip_ds6_route_init
                0x0000000000006f0c       0x36 contiki-z1.a(uip-ds6-route.o)
                0x0000000000006f0c                uip_ds6_route_init
 .any.text.uip_ds6_route_nexthop
                0x0000000000006f42       0x1a contiki-z1.a(uip-ds6-route.o)
                0x0000000000006f42                uip_ds6_route_nexthop
 .any.text.uip_ds6_route_head
                0x0000000000006f5c        0xa contiki-z1.a(uip-ds6-route.o)
                0x0000000000006f5c                uip_ds6_route_head
 .any.text.uip_ds6_route_next
                0x0000000000006f66        0xe contiki-z1.a(uip-ds6-route.o)
                0x0000000000006f66                uip_ds6_route_next
 .any.text.uip_ds6_route_is_nexthop
                0x0000000000006f74       0x22 contiki-z1.a(uip-ds6-route.o)
                0x0000000000006f74                uip_ds6_route_is_nexthop
 .any.text.uip_ds6_route_lookup
                0x0000000000006f96       0x6e contiki-z1.a(uip-ds6-route.o)
                0x0000000000006f96                uip_ds6_route_lookup
 .any.text.uip_ds6_route_rm
                0x0000000000007004       0xa2 contiki-z1.a(uip-ds6-route.o)
                0x0000000000007004                uip_ds6_route_rm
 .any.text.rm_routelist
                0x00000000000070a6       0x34 contiki-z1.a(uip-ds6-route.o)
 .any.text.rm_routelist_callback
                0x00000000000070da        0x6 contiki-z1.a(uip-ds6-route.o)
 .any.text.uip_ds6_route_add
                0x00000000000070e0       0xfc contiki-z1.a(uip-ds6-route.o)
                0x00000000000070e0                uip_ds6_route_add
 .any.text.uip_ds6_defrt_rm
                0x00000000000071dc       0x44 contiki-z1.a(uip-ds6-route.o)
                0x00000000000071dc                uip_ds6_defrt_rm
 .any.text.uip_ds6_defrt_lookup
                0x0000000000007220       0x32 contiki-z1.a(uip-ds6-route.o)
                0x0000000000007220                uip_ds6_defrt_lookup
 .any.text.uip_ds6_defrt_add
                0x0000000000007252       0x68 contiki-z1.a(uip-ds6-route.o)
                0x0000000000007252                uip_ds6_defrt_add
 .any.text.uip_ds6_defrt_choose
                0x00000000000072ba       0x36 contiki-z1.a(uip-ds6-route.o)
                0x00000000000072ba                uip_ds6_defrt_choose
 .any.text.uip_ds6_defrt_periodic
                0x00000000000072f0       0x38 contiki-z1.a(uip-ds6-route.o)
                0x00000000000072f0                uip_ds6_defrt_periodic
 .any.text.chksum
                0x0000000000007328       0x32 contiki-z1.a(uip6.o)
 .any.text.upper_layer_chksum
                0x000000000000735a       0x56 contiki-z1.a(uip6.o)
 .any.text.ext_hdr_options_process
                0x00000000000073b0       0xc2 contiki-z1.a(uip6.o)
 .any.text.uip_add32
                0x0000000000007472       0x60 contiki-z1.a(uip6.o)
                0x0000000000007472                uip_add32
 .any.text.uip_add_rcv_nxt
                0x00000000000074d2       0x2e contiki-z1.a(uip6.o)
 .any.text.uip_icmp6chksum
                0x0000000000007500        0xa contiki-z1.a(uip6.o)
                0x0000000000007500                uip_icmp6chksum
 .any.text.uip_tcpchksum
                0x000000000000750a        0xa contiki-z1.a(uip6.o)
                0x000000000000750a                uip_tcpchksum
 .any.text.uip_udpchksum
                0x0000000000007514        0xa contiki-z1.a(uip6.o)
                0x0000000000007514                uip_udpchksum
 .any.text.uip_init
                0x000000000000751e       0x56 contiki-z1.a(uip6.o)
                0x000000000000751e                uip_init
 .any.text.remove_ext_hdr
                0x0000000000007574       0x50 contiki-z1.a(uip6.o)
                0x0000000000007574                remove_ext_hdr
 .any.text.uip_udp_new
                0x00000000000075c4       0xa2 contiki-z1.a(uip6.o)
                0x00000000000075c4                uip_udp_new
 .any.text.uip_unlisten
                0x0000000000007666       0x1a contiki-z1.a(uip6.o)
                0x0000000000007666                uip_unlisten
 .any.text.uip_process
                0x0000000000007680      0xe90 contiki-z1.a(uip6.o)
                0x0000000000007680                uip_process
 .any.text.uip_htonl
                0x0000000000008510       0x2a contiki-z1.a(uip6.o)
                0x0000000000008510                uip_htonl
 .any.text.uip_ds6_nbr_rm
                0x000000000000853a       0x30 contiki-z1.a(uip-ds6-nbr.o)
                0x000000000000853a                uip_ds6_nbr_rm
 .any.text.uip_ds6_neighbors_init
                0x000000000000856a       0x12 contiki-z1.a(uip-ds6-nbr.o)
                0x000000000000856a                uip_ds6_neighbors_init
 .any.text.uip_ds6_nbr_add
                0x000000000000857c       0x36 contiki-z1.a(uip-ds6-nbr.o)
                0x000000000000857c                uip_ds6_nbr_add
 .any.text.uip_ds6_nbr_get_ll
                0x00000000000085b2        0xc contiki-z1.a(uip-ds6-nbr.o)
                0x00000000000085b2                uip_ds6_nbr_get_ll
 .any.text.uip_ds6_nbr_lookup
                0x00000000000085be       0x3e contiki-z1.a(uip-ds6-nbr.o)
                0x00000000000085be                uip_ds6_nbr_lookup
 .any.text.uip_ds6_nbr_ll_lookup
                0x00000000000085fc        0xc contiki-z1.a(uip-ds6-nbr.o)
                0x00000000000085fc                uip_ds6_nbr_ll_lookup
 .any.text.uip_ds6_nbr_ipaddr_from_lladdr
                0x0000000000008608        0x6 contiki-z1.a(uip-ds6-nbr.o)
                0x0000000000008608                uip_ds6_nbr_ipaddr_from_lladdr
 .any.text.uip_ds6_nbr_lladdr_from_ipaddr
                0x000000000000860e       0x12 contiki-z1.a(uip-ds6-nbr.o)
                0x000000000000860e                uip_ds6_nbr_lladdr_from_ipaddr
 .any.text.uip_ds6_link_neighbor_callback
                0x0000000000008620       0x32 contiki-z1.a(uip-ds6-nbr.o)
                0x0000000000008620                uip_ds6_link_neighbor_callback
 .any.text.ns_input
                0x0000000000008652      0x26c contiki-z1.a(uip-nd6.o)
 .any.text.uip_nd6_init
                0x00000000000088be        0xa contiki-z1.a(uip-nd6.o)
                0x00000000000088be                uip_nd6_init
 .any.text.clear_fragments
                0x00000000000088c8       0x38 contiki-z1.a(sicslowpan.o)
 .any.text.set_packet_attrs
                0x0000000000008900       0x46 contiki-z1.a(sicslowpan.o)
 .any.text.addr_context_lookup_by_number
                0x0000000000008946       0x30 contiki-z1.a(sicslowpan.o)
 .any.text.compress_addr_64
                0x0000000000008976       0x9a contiki-z1.a(sicslowpan.o)
 .any.text.store_fragment
                0x0000000000008a10       0x6e contiki-z1.a(sicslowpan.o)
 .any.text.uncompress_addr
                0x0000000000008a7e       0x96 contiki-z1.a(sicslowpan.o)
 .any.text.sicslowpan_init
                0x0000000000008b14       0x24 contiki-z1.a(sicslowpan.o)
                0x0000000000008b14                sicslowpan_init
 .any.text.addr_context_lookup_by_prefix
                0x0000000000008b38       0x4a contiki-z1.a(sicslowpan.o)
 .any.text.packet_sent
                0x0000000000008b82       0x22 contiki-z1.a(sicslowpan.o)
 .any.text.add_fragment
                0x0000000000008ba4      0x160 contiki-z1.a(sicslowpan.o)
 .any.text.input
                0x0000000000008d04      0x60e contiki-z1.a(sicslowpan.o)
 .any.text.send_packet
                0x0000000000009312       0x1a contiki-z1.a(sicslowpan.o)
 .any.text.output
                0x000000000000932c      0x67c contiki-z1.a(sicslowpan.o)
 .any.text.uip_udp_packet_send
                0x00000000000099a8       0x2a contiki-z1.a(uip-udp-packet.)
                0x00000000000099a8                uip_udp_packet_send
 .any.text.uip_udp_packet_sendto
                0x00000000000099d2       0x56 contiki-z1.a(uip-udp-packet.)
                0x00000000000099d2                uip_udp_packet_sendto
 .any.text.start_periodic_tcp_timer
                0x0000000000009a28       0x16 contiki-z1.a(tcpip.o)
 .any.text.tcpip_output
                0x0000000000009a3e       0x10 contiki-z1.a(tcpip.o)
                0x0000000000009a3e                tcpip_output
 .any.text.tcpip_set_outputfunc
                0x0000000000009a4e        0x6 contiki-z1.a(tcpip.o)
                0x0000000000009a4e                tcpip_set_outputfunc
 .any.text.udp_new
                0x0000000000009a54       0x1a contiki-z1.a(tcpip.o)
                0x0000000000009a54                udp_new
 .any.text.tcpip_input
                0x0000000000009a6e       0x16 contiki-z1.a(tcpip.o)
                0x0000000000009a6e                tcpip_input
 .any.text.tcpip_ipv6_output
                0x0000000000009a84       0xcc contiki-z1.a(tcpip.o)
                0x0000000000009a84                tcpip_ipv6_output
 .any.text.process_thread_tcpip_process
                0x0000000000009b50      0x1a8 contiki-z1.a(tcpip.o)
 .any.text.tcpip_uipcall
                0x0000000000009cf8       0x62 contiki-z1.a(tcpip.o)
                0x0000000000009cf8                tcpip_uipcall
 .any.text.uip_debug_ipaddr_print
                0x0000000000009d5a       0xbc contiki-z1.a(uip-debug.o)
                0x0000000000009d5a                uip_debug_ipaddr_print
 .any.text.handle_unicast_dio_timer
                0x0000000000009e16       0x1c contiki-z1.a(rpl-timers.o)
 .any.text.new_dio_interval
                0x0000000000009e32       0x8a contiki-z1.a(rpl-timers.o)
 .any.text.set_dao_lifetime_timer
                0x0000000000009ebc       0x7e contiki-z1.a(rpl-timers.o)
 .any.text.handle_periodic_timer
                0x0000000000009f3a       0x50 contiki-z1.a(rpl-timers.o)
 .any.text.schedule_dao
                0x0000000000009f8a       0x72 contiki-z1.a(rpl-timers.o)
 .any.text.handle_dio_timer
                0x0000000000009ffc       0x88 contiki-z1.a(rpl-timers.o)
 .any.text.handle_dao_timer
                0x000000000000a084       0x64 contiki-z1.a(rpl-timers.o)
 .any.text.rpl_reset_periodic_timer
                0x000000000000a0e8       0x54 contiki-z1.a(rpl-timers.o)
                0x000000000000a0e8                rpl_reset_periodic_timer
 .any.text.rpl_reset_dio_timer
                0x000000000000a13c       0x18 contiki-z1.a(rpl-timers.o)
                0x000000000000a13c                rpl_reset_dio_timer
 .any.text.rpl_schedule_dao
                0x000000000000a154        0xc contiki-z1.a(rpl-timers.o)
                0x000000000000a154                rpl_schedule_dao
 .any.text.rpl_schedule_unicast_dio_immediately
                0x000000000000a160       0x16 contiki-z1.a(rpl-timers.o)
                0x000000000000a160                rpl_schedule_unicast_dio_immediately
 .any.text.get_probing_delay
                0x000000000000a176       0x40 contiki-z1.a(rpl-timers.o)
                0x000000000000a176                get_probing_delay
 .any.text.get_probing_target
                0x000000000000a1b6       0xe2 contiki-z1.a(rpl-timers.o)
                0x000000000000a1b6                get_probing_target
 .any.text.rpl_schedule_probing
                0x000000000000a298       0x26 contiki-z1.a(rpl-timers.o)
                0x000000000000a298                rpl_schedule_probing
 .any.text.handle_probing_timer
                0x000000000000a2be       0x34 contiki-z1.a(rpl-timers.o)
 .any.text.update_hbh_header
                0x000000000000a2f2       0xcc contiki-z1.a(rpl-ext-header.)
 .any.text.insert_hbh_header
                0x000000000000a3be       0x94 contiki-z1.a(rpl-ext-header.)
 .any.text.rpl_verify_hbh_header
                0x000000000000a452       0xf4 contiki-z1.a(rpl-ext-header.)
                0x000000000000a452                rpl_verify_hbh_header
 .any.text.rpl_remove_header
                0x000000000000a546       0x76 contiki-z1.a(rpl-ext-header.)
                0x000000000000a546                rpl_remove_header
 .any.text.rpl_update_header
                0x000000000000a5bc       0x60 contiki-z1.a(rpl-ext-header.)
                0x000000000000a5bc                rpl_update_header
 .any.text.rpl_get_mode
                0x000000000000a61c        0x6 contiki-z1.a(rpl.o)
                0x000000000000a61c                rpl_get_mode
 .any.text.rpl_purge_routes
                0x000000000000a622       0x94 contiki-z1.a(rpl.o)
                0x000000000000a622                rpl_purge_routes
 .any.text.rpl_remove_routes
                0x000000000000a6b6       0x22 contiki-z1.a(rpl.o)
                0x000000000000a6b6                rpl_remove_routes
 .any.text.rpl_remove_routes_by_nexthop
                0x000000000000a6d8       0x3e contiki-z1.a(rpl.o)
                0x000000000000a6d8                rpl_remove_routes_by_nexthop
 .any.text.rpl_add_route
                0x000000000000a716       0x5c contiki-z1.a(rpl.o)
                0x000000000000a716                rpl_add_route
 .any.text.rpl_link_neighbor_callback
                0x000000000000a772       0x4c contiki-z1.a(rpl.o)
                0x000000000000a772                rpl_link_neighbor_callback
 .any.text.rpl_ipv6_neighbor_callback
                0x000000000000a7be       0x1e contiki-z1.a(rpl.o)
                0x000000000000a7be                rpl_ipv6_neighbor_callback
 .any.text.rpl_purge_dags
                0x000000000000a7dc       0x60 contiki-z1.a(rpl.o)
                0x000000000000a7dc                rpl_purge_dags
 .any.text.rpl_init
                0x000000000000a83c       0x44 contiki-z1.a(rpl.o)
                0x000000000000a83c                rpl_init
 .any.text.lollipop_greater_than
                0x000000000000a880       0x3c contiki-z1.a(rpl-dag.o)
 .any.text.find_parent_any_dag_any_instance
                0x000000000000a8bc       0x14 contiki-z1.a(rpl-dag.o)
 .any.text.rpl_set_preferred_parent
                0x000000000000a8d0       0x2c contiki-z1.a(rpl-dag.o)
 .any.text.set_ip_from_prefix
                0x000000000000a8fc       0x30 contiki-z1.a(rpl-dag.o)
 .any.text.check_prefix
                0x000000000000a92c       0x70 contiki-z1.a(rpl-dag.o)
 .any.text.rpl_dag_init
                0x000000000000a99c        0xe contiki-z1.a(rpl-dag.o)
                0x000000000000a99c                rpl_dag_init
 .any.text.rpl_get_parent
                0x000000000000a9aa        0xc contiki-z1.a(rpl-dag.o)
                0x000000000000a9aa                rpl_get_parent
 .any.text.rpl_rank_via_parent
                0x000000000000a9b6       0x2a contiki-z1.a(rpl-dag.o)
                0x000000000000a9b6                rpl_rank_via_parent
 .any.text.rpl_get_parent_lladdr
                0x000000000000a9e0        0xc contiki-z1.a(rpl-dag.o)
                0x000000000000a9e0                rpl_get_parent_lladdr
 .any.text.rpl_get_parent_ipaddr
                0x000000000000a9ec        0xa contiki-z1.a(rpl-dag.o)
                0x000000000000a9ec                rpl_get_parent_ipaddr
 .any.text.rpl_get_parent_link_stats
                0x000000000000a9f6        0xa contiki-z1.a(rpl-dag.o)
                0x000000000000a9f6                rpl_get_parent_link_stats
 .any.text.rpl_parent_is_fresh
                0x000000000000aa00        0xa contiki-z1.a(rpl-dag.o)
                0x000000000000aa00                rpl_parent_is_fresh
 .any.text.best_parent
                0x000000000000aa0a       0x72 contiki-z1.a(rpl-dag.o)
 .any.text.rpl_parent_is_reachable
                0x000000000000aa7c       0x4a contiki-z1.a(rpl-dag.o)
                0x000000000000aa7c                rpl_parent_is_reachable
 .any.text.rpl_set_prefix
                0x000000000000aac6       0x74 contiki-z1.a(rpl-dag.o)
                0x000000000000aac6                rpl_set_prefix
 .any.text.rpl_set_default_route
                0x000000000000ab3a       0x3a contiki-z1.a(rpl-dag.o)
                0x000000000000ab3a                rpl_set_default_route
 .any.text.rpl_alloc_instance
                0x000000000000ab74       0x34 contiki-z1.a(rpl-dag.o)
                0x000000000000ab74                rpl_alloc_instance
 .any.text.rpl_add_parent
                0x000000000000aba8       0x3a contiki-z1.a(rpl-dag.o)
                0x000000000000aba8                rpl_add_parent
 .any.text.rpl_find_parent
                0x000000000000abe2       0x1a contiki-z1.a(rpl-dag.o)
                0x000000000000abe2                rpl_find_parent
 .any.text.rpl_find_parent_any_dag
                0x000000000000abfc       0x22 contiki-z1.a(rpl-dag.o)
                0x000000000000abfc                rpl_find_parent_any_dag
 .any.text.rpl_select_parent
                0x000000000000ac1e       0x62 contiki-z1.a(rpl-dag.o)
                0x000000000000ac1e                rpl_select_parent
 .any.text.rpl_select_dag
                0x000000000000ac80      0x192 contiki-z1.a(rpl-dag.o)
                0x000000000000ac80                rpl_select_dag
 .any.text.rpl_nullify_parent
                0x000000000000ae12       0x5c contiki-z1.a(rpl-dag.o)
                0x000000000000ae12                rpl_nullify_parent
 .any.text.rpl_remove_parent
                0x000000000000ae6e       0x16 contiki-z1.a(rpl-dag.o)
                0x000000000000ae6e                rpl_remove_parent
 .any.text.nbr_callback
                0x000000000000ae84        0x6 contiki-z1.a(rpl-dag.o)
 .any.text.remove_parents.constprop.4
                0x000000000000ae8a       0x2c contiki-z1.a(rpl-dag.o)
 .any.text.rpl_free_dag
                0x000000000000aeb6       0x42 contiki-z1.a(rpl-dag.o)
                0x000000000000aeb6                rpl_free_dag
 .any.text.rpl_move_parent
                0x000000000000aef8       0x60 contiki-z1.a(rpl-dag.o)
                0x000000000000aef8                rpl_move_parent
 .any.text.rpl_get_dag
                0x000000000000af58       0x5c contiki-z1.a(rpl-dag.o)
                0x000000000000af58                rpl_get_dag
 .any.text.rpl_get_any_dag
                0x000000000000afb4       0x16 contiki-z1.a(rpl-dag.o)
                0x000000000000afb4                rpl_get_any_dag
 .any.text.rpl_get_instance
                0x000000000000afca       0x16 contiki-z1.a(rpl-dag.o)
                0x000000000000afca                rpl_get_instance
 .any.text.rpl_alloc_dag
                0x000000000000afe0       0x60 contiki-z1.a(rpl-dag.o)
                0x000000000000afe0                rpl_alloc_dag
 .any.text.rpl_repair_root
                0x000000000000b040       0x4c contiki-z1.a(rpl-dag.o)
                0x000000000000b040                rpl_repair_root
 .any.text.rpl_find_of
                0x000000000000b08c       0x10 contiki-z1.a(rpl-dag.o)
                0x000000000000b08c                rpl_find_of
 .any.text.rpl_join_instance
                0x000000000000b09c      0x142 contiki-z1.a(rpl-dag.o)
                0x000000000000b09c                rpl_join_instance
 .any.text.rpl_local_repair
                0x000000000000b1de       0x82 contiki-z1.a(rpl-dag.o)
                0x000000000000b1de                rpl_local_repair
 .any.text.rpl_process_parent_event
                0x000000000000b260       0xa8 contiki-z1.a(rpl-dag.o)
                0x000000000000b260                rpl_process_parent_event
 .any.text.rpl_recalculate_ranks
                0x000000000000b308       0x44 contiki-z1.a(rpl-dag.o)
                0x000000000000b308                rpl_recalculate_ranks
 .any.text.rpl_add_dag
                0x000000000000b34c      0x104 contiki-z1.a(rpl-dag.o)
                0x000000000000b34c                rpl_add_dag
 .any.text.rpl_process_dio
                0x000000000000b450      0x32c contiki-z1.a(rpl-dag.o)
                0x000000000000b450                rpl_process_dio
 .any.text.queuebuf_init
                0x000000000000b77c       0x12 contiki-z1.a(queuebuf.o)
                0x000000000000b77c                queuebuf_init
 .any.text.queuebuf_numfree
                0x000000000000b78e        0xa contiki-z1.a(queuebuf.o)
                0x000000000000b78e                queuebuf_numfree
 .any.text.queuebuf_new_from_packetbuf
                0x000000000000b798       0x4e contiki-z1.a(queuebuf.o)
                0x000000000000b798                queuebuf_new_from_packetbuf
 .any.text.queuebuf_update_attr_from_packetbuf
                0x000000000000b7e6       0x12 contiki-z1.a(queuebuf.o)
                0x000000000000b7e6                queuebuf_update_attr_from_packetbuf
 .any.text.queuebuf_free
                0x000000000000b7f8       0x2a contiki-z1.a(queuebuf.o)
                0x000000000000b7f8                queuebuf_free
 .any.text.queuebuf_to_packetbuf
                0x000000000000b822       0x32 contiki-z1.a(queuebuf.o)
                0x000000000000b822                queuebuf_to_packetbuf
 .any.text.queuebuf_attr
                0x000000000000b854        0xe contiki-z1.a(queuebuf.o)
                0x000000000000b854                queuebuf_attr
 .any.text.key_from_index
                0x000000000000b862       0x18 contiki-z1.a(nbr-table.o)
 .any.text.item_from_index
                0x000000000000b87a       0x2a contiki-z1.a(nbr-table.o)
 .any.text.index_from_key
                0x000000000000b8a4       0x26 contiki-z1.a(nbr-table.o)
 .any.text.index_from_item
                0x000000000000b8ca       0x1e contiki-z1.a(nbr-table.o)
 .any.text.nbr_set_bit
                0x000000000000b8e8       0x50 contiki-z1.a(nbr-table.o)
 .any.text.index_from_lladdr
                0x000000000000b938       0x3e contiki-z1.a(nbr-table.o)
 .any.text.nbr_get_bit.constprop.0
                0x000000000000b976       0x2c contiki-z1.a(nbr-table.o)
 .any.text.remove_key
                0x000000000000b9a2       0x56 contiki-z1.a(nbr-table.o)
 .any.text.nbr_table_register
                0x000000000000b9f8       0x26 contiki-z1.a(nbr-table.o)
                0x000000000000b9f8                nbr_table_register
 .any.text.nbr_table_next
                0x000000000000ba1e       0x3a contiki-z1.a(nbr-table.o)
                0x000000000000ba1e                nbr_table_next
 .any.text.nbr_table_head
                0x000000000000ba58       0x36 contiki-z1.a(nbr-table.o)
                0x000000000000ba58                nbr_table_head
 .any.text.nbr_table_add_lladdr
                0x000000000000ba8e       0xfc contiki-z1.a(nbr-table.o)
                0x000000000000ba8e                nbr_table_add_lladdr
 .any.text.nbr_table_get_from_lladdr
                0x000000000000bb8a       0x28 contiki-z1.a(nbr-table.o)
                0x000000000000bb8a                nbr_table_get_from_lladdr
 .any.text.nbr_table_remove
                0x000000000000bbb2       0x2a contiki-z1.a(nbr-table.o)
                0x000000000000bbb2                nbr_table_remove
 .any.text.nbr_table_lock
                0x000000000000bbdc       0x10 contiki-z1.a(nbr-table.o)
                0x000000000000bbdc                nbr_table_lock
 .any.text.nbr_table_unlock
                0x000000000000bbec       0x10 contiki-z1.a(nbr-table.o)
                0x000000000000bbec                nbr_table_unlock
 .any.text.nbr_table_get_lladdr
                0x000000000000bbfc       0x14 contiki-z1.a(nbr-table.o)
                0x000000000000bbfc                nbr_table_get_lladdr
 .any.text.nbr_table_update_lladdr
                0x000000000000bc10       0x48 contiki-z1.a(nbr-table.o)
                0x000000000000bc10                nbr_table_update_lladdr
 .any.text.packetbuf_hdrreduce
                0x000000000000bc58       0x1a contiki-z1.a(packetbuf.o)
                0x000000000000bc58                packetbuf_hdrreduce
 .any.text.packetbuf_set_datalen
                0x000000000000bc72        0x6 contiki-z1.a(packetbuf.o)
                0x000000000000bc72                packetbuf_set_datalen
 .any.text.packetbuf_hdrptr
                0x000000000000bc78        0x6 contiki-z1.a(packetbuf.o)
                0x000000000000bc78                packetbuf_hdrptr
 .any.text.packetbuf_datalen
                0x000000000000bc7e        0x6 contiki-z1.a(packetbuf.o)
                0x000000000000bc7e                packetbuf_datalen
 .any.text.packetbuf_hdrlen
                0x000000000000bc84        0xa contiki-z1.a(packetbuf.o)
                0x000000000000bc84                packetbuf_hdrlen
 .any.text.packetbuf_dataptr
                0x000000000000bc8e        0xc contiki-z1.a(packetbuf.o)
                0x000000000000bc8e                packetbuf_dataptr
 .any.text.packetbuf_copyto
                0x000000000000bc9a       0x3a contiki-z1.a(packetbuf.o)
                0x000000000000bc9a                packetbuf_copyto
 .any.text.packetbuf_totlen
                0x000000000000bcd4        0xc contiki-z1.a(packetbuf.o)
                0x000000000000bcd4                packetbuf_totlen
 .any.text.packetbuf_hdralloc
                0x000000000000bce0       0x3c contiki-z1.a(packetbuf.o)
                0x000000000000bce0                packetbuf_hdralloc
 .any.text.packetbuf_attr_clear
                0x000000000000bd1c       0x28 contiki-z1.a(packetbuf.o)
                0x000000000000bd1c                packetbuf_attr_clear
 .any.text.packetbuf_clear
                0x000000000000bd44       0x12 contiki-z1.a(packetbuf.o)
                0x000000000000bd44                packetbuf_clear
 .any.text.packetbuf_copyfrom
                0x000000000000bd56       0x2a contiki-z1.a(packetbuf.o)
                0x000000000000bd56                packetbuf_copyfrom
 .any.text.packetbuf_attr_copyto
                0x000000000000bd80       0x22 contiki-z1.a(packetbuf.o)
                0x000000000000bd80                packetbuf_attr_copyto
 .any.text.packetbuf_attr_copyfrom
                0x000000000000bda2       0x24 contiki-z1.a(packetbuf.o)
                0x000000000000bda2                packetbuf_attr_copyfrom
 .any.text.packetbuf_holds_broadcast
                0x000000000000bdc6        0xe contiki-z1.a(packetbuf.o)
                0x000000000000bdc6                packetbuf_holds_broadcast
 .any.text.linkaddr_copy
                0x000000000000bdd4        0x8 contiki-z1.a(linkaddr.o)
                0x000000000000bdd4                linkaddr_copy
 .any.text.linkaddr_cmp
                0x000000000000bddc       0x12 contiki-z1.a(linkaddr.o)
                0x000000000000bddc                linkaddr_cmp
 .any.text.linkaddr_set_node_addr
                0x000000000000bdee        0xc contiki-z1.a(linkaddr.o)
                0x000000000000bdee                linkaddr_set_node_addr
 .any.text.periodic
                0x000000000000bdfa       0x2c contiki-z1.a(link-stats.o)
 .any.text.link_stats_from_lladdr
                0x000000000000be26        0xc contiki-z1.a(link-stats.o)
                0x000000000000be26                link_stats_from_lladdr
 .any.text.link_stats_is_fresh
                0x000000000000be32       0x32 contiki-z1.a(link-stats.o)
                0x000000000000be32                link_stats_is_fresh
 .any.text.link_stats_packet_sent
                0x000000000000be64       0xc4 contiki-z1.a(link-stats.o)
                0x000000000000be64                link_stats_packet_sent
 .any.text.link_stats_input_callback
                0x000000000000bf28       0xa8 contiki-z1.a(link-stats.o)
                0x000000000000bf28                link_stats_input_callback
 .any.text.link_stats_init
                0x000000000000bfd0       0x22 contiki-z1.a(link-stats.o)
                0x000000000000bfd0                link_stats_init
 .any.text.create_frame.isra.0
                0x000000000000bff2      0x114 contiki-z1.a(framer-802154.o)
 .any.text.create
                0x000000000000c106        0x8 contiki-z1.a(framer-802154.o)
 .any.text.hdr_length
                0x000000000000c10e        0x8 contiki-z1.a(framer-802154.o)
 .any.text.parse
                0x000000000000c116       0x9a contiki-z1.a(framer-802154.o)
 .any.text.input_packet
                0x000000000000c1b0        0x6 contiki-z1.a(csma.o)
 .any.text.on   0x000000000000c1b6        0x6 contiki-z1.a(csma.o)
 .any.text.off  0x000000000000c1bc        0x6 contiki-z1.a(csma.o)
 .any.text.channel_check_interval
                0x000000000000c1c2       0x10 contiki-z1.a(csma.o)
 .any.text.transmit_packet_list
                0x000000000000c1d2       0x24 contiki-z1.a(csma.o)
 .any.text.schedule_transmission
                0x000000000000c1f6       0x84 contiki-z1.a(csma.o)
 .any.text.init
                0x000000000000c27a       0x1a contiki-z1.a(csma.o)
 .any.text.tx_done
                0x000000000000c294       0x86 contiki-z1.a(csma.o)
 .any.text.send_packet
                0x000000000000c31a      0x158 contiki-z1.a(csma.o)
 .any.text.packet_sent
                0x000000000000c472       0xca contiki-z1.a(csma.o)
 .any.text.frame802154_get_pan_id
                0x000000000000c53c        0x6 contiki-z1.a(frame802154.o)
                0x000000000000c53c                frame802154_get_pan_id
 .any.text.frame802154_has_panid
                0x000000000000c542       0xe0 contiki-z1.a(frame802154.o)
                0x000000000000c542                frame802154_has_panid
 .any.text.field_len
                0x000000000000c622       0xa8 contiki-z1.a(frame802154.o)
 .any.text.frame802154_is_broadcast_addr
                0x000000000000c6ca       0x28 contiki-z1.a(frame802154.o)
                0x000000000000c6ca                frame802154_is_broadcast_addr
 .any.text.frame802154_hdrlen
                0x000000000000c6f2       0x32 contiki-z1.a(frame802154.o)
                0x000000000000c6f2                frame802154_hdrlen
 .any.text.frame802154_create_fcf
                0x000000000000c724       0x6e contiki-z1.a(frame802154.o)
                0x000000000000c724                frame802154_create_fcf
 .any.text.frame802154_create
                0x000000000000c792       0xd4 contiki-z1.a(frame802154.o)
                0x000000000000c792                frame802154_create
 .any.text.frame802154_parse_fcf
                0x000000000000c866       0x8c contiki-z1.a(frame802154.o)
                0x000000000000c866                frame802154_parse_fcf
 .any.text.frame802154_parse
                0x000000000000c8f2      0x15c contiki-z1.a(frame802154.o)
                0x000000000000c8f2                frame802154_parse
 .any.text.mac_call_sent_callback
                0x000000000000ca4e       0x14 contiki-z1.a(mac.o)
                0x000000000000ca4e                mac_call_sent_callback
 .any.text.on   0x000000000000ca62        0x6 contiki-z1.a(nullrdc.o)
 .any.text.channel_check_interval
                0x000000000000ca68        0x4 contiki-z1.a(nullrdc.o)
 .any.text.init
                0x000000000000ca6c        0x6 contiki-z1.a(nullrdc.o)
 .any.text.off  0x000000000000ca72       0x10 contiki-z1.a(nullrdc.o)
 .any.text.packet_input
                0x000000000000ca82       0x40 contiki-z1.a(nullrdc.o)
 .any.text.send_one_packet
                0x000000000000cac2      0x114 contiki-z1.a(nullrdc.o)
 .any.text.send_list
                0x000000000000cbd6       0x28 contiki-z1.a(nullrdc.o)
 .any.text.send_packet
                0x000000000000cbfe        0x6 contiki-z1.a(nullrdc.o)
 .any.text.init
                0x000000000000cc04        0x2 contiki-z1.a(nullsec.o)
 .any.text.send
                0x000000000000cc06        0xa contiki-z1.a(nullsec.o)
 .any.text.input
                0x000000000000cc10        0x6 contiki-z1.a(nullsec.o)
 .any.text.i2c_receiveinit
                0x000000000000cc16       0x36 contiki-z1.a(i2cmaster.o)
                0x000000000000cc16                i2c_receiveinit
 .any.text.i2c_transmitinit
                0x000000000000cc4c       0x30 contiki-z1.a(i2cmaster.o)
                0x000000000000cc4c                i2c_transmitinit
 .any.text.i2c_receive_n
                0x000000000000cc7c       0x3e contiki-z1.a(i2cmaster.o)
                0x000000000000cc7c                i2c_receive_n
 .any.text.i2c_busy
                0x000000000000ccba        0xa contiki-z1.a(i2cmaster.o)
                0x000000000000ccba                i2c_busy
 .any.text.i2c_enable
                0x000000000000ccc4       0x22 contiki-z1.a(i2cmaster.o)
                0x000000000000ccc4                i2c_enable
 .any.text.i2c_transmit_n
                0x000000000000cce6       0x14 contiki-z1.a(i2cmaster.o)
                0x000000000000cce6                i2c_transmit_n
 .any.text.status
                0x000000000000ccfa       0x18 contiki-z1.a(button-sensor.o)
 .any.text.value
                0x000000000000cd12       0x20 contiki-z1.a(button-sensor.o)
 .any.text.configure
                0x000000000000cd32       0x4e contiki-z1.a(button-sensor.o)
 .any.text.stimer_set
                0x000000000000cd80       0x1c contiki-z1.a(stimer.o)
                0x000000000000cd80                stimer_set
 .any.text.stimer_expired
                0x000000000000cd9c       0x30 contiki-z1.a(stimer.o)
                0x000000000000cd9c                stimer_expired
 .any.text.memb_init
                0x000000000000cdcc       0x36 contiki-z1.a(memb.o)
                0x000000000000cdcc                memb_init
 .any.text.memb_alloc
                0x000000000000ce02       0x3e contiki-z1.a(memb.o)
                0x000000000000ce02                memb_alloc
 .any.text.memb_free
                0x000000000000ce40       0x3a contiki-z1.a(memb.o)
                0x000000000000ce40                memb_free
 .any.text.memb_inmemb
                0x000000000000ce7a       0x2a contiki-z1.a(memb.o)
                0x000000000000ce7a                memb_inmemb
 .any.text.memb_numfree
                0x000000000000cea4       0x26 contiki-z1.a(memb.o)
                0x000000000000cea4                memb_numfree
 .any.text.update_nbr
                0x000000000000ceca       0xda contiki-z1.a(rpl-nbr-policy.)
 .any.text.handle_periodic_timer
                0x000000000000cfa4        0xe contiki-z1.a(rpl-nbr-policy.)
 .any.text.find_removable_dis
                0x000000000000cfb2       0x14 contiki-z1.a(rpl-nbr-policy.)
                0x000000000000cfb2                find_removable_dis
 .any.text.find_removable_dio
                0x000000000000cfc6       0x3c contiki-z1.a(rpl-nbr-policy.)
                0x000000000000cfc6                find_removable_dio
 .any.text.find_removable_dao
                0x000000000000d002       0x32 contiki-z1.a(rpl-nbr-policy.)
                0x000000000000d002                find_removable_dao
 .any.text.rpl_nbr_policy_find_removable
                0x000000000000d034       0x30 contiki-z1.a(rpl-nbr-policy.)
                0x000000000000d034                rpl_nbr_policy_find_removable
 .any.text.reset
                0x000000000000d064        0x2 contiki-z1.a(rpl-mrhof.o)
 .any.text.update_metric_container
                0x000000000000d066        0x6 contiki-z1.a(rpl-mrhof.o)
 .any.text.parent_link_metric
                0x000000000000d06c       0x10 contiki-z1.a(rpl-mrhof.o)
 .any.text.parent_has_usable_link
                0x000000000000d07c       0x14 contiki-z1.a(rpl-mrhof.o)
 .any.text.best_dag
                0x000000000000d090       0x2e contiki-z1.a(rpl-mrhof.o)
 .any.text.parent_path_cost
                0x000000000000d0be       0x40 contiki-z1.a(rpl-mrhof.o)
 .any.text.parent_is_acceptable
                0x000000000000d0fe       0x2a contiki-z1.a(rpl-mrhof.o)
 .any.text.rank_via_parent
                0x000000000000d128       0x4e contiki-z1.a(rpl-mrhof.o)
 .any.text.best_parent
                0x000000000000d176       0x76 contiki-z1.a(rpl-mrhof.o)
 .any.text.mac_sequence_is_duplicate
                0x000000000000d1ec       0x60 contiki-z1.a(mac-sequence.o)
                0x000000000000d1ec                mac_sequence_is_duplicate
 .any.text.mac_sequence_register_seqno
                0x000000000000d24c       0x76 contiki-z1.a(mac-sequence.o)
                0x000000000000d24c                mac_sequence_register_seqno
 .any.text.printf
                0x000000000000d2c2       0x10 /opt/msp430-47-expr/bin/../lib/gcc/msp430/4.7.0/../../../../msp430/lib/mcpu-430x/mmpy-16/msr20/mc20/libc.a(printf.o)
                0x000000000000d2c2                printf
 .any.text.append
                0x000000000000d2d2       0x22 /opt/msp430-47-expr/bin/../lib/gcc/msp430/4.7.0/../../../../msp430/lib/mcpu-430x/mmpy-16/msr20/mc20/libc.a(sprintf.o)
 .any.text.call_vuprintf
                0x000000000000d2f4       0x36 /opt/msp430-47-expr/bin/../lib/gcc/msp430/4.7.0/../../../../msp430/lib/mcpu-430x/mmpy-16/msr20/mc20/libc.a(sprintf.o)
 .any.text.sprintf
                0x000000000000d32a       0x1a /opt/msp430-47-expr/bin/../lib/gcc/msp430/4.7.0/../../../../msp430/lib/mcpu-430x/mmpy-16/msr20/mc20/libc.a(sprintf.o)
                0x000000000000d32a                sprintf
 .any.text.print_field
                0x000000000000d344      0x176 /opt/msp430-47-expr/bin/../lib/gcc/msp430/4.7.0/../../../../msp430/lib/mcpu-430x/mmpy-16/msr20/mc20/libc.a(vuprintf.o)
 .any.text.vuprintf
                0x000000000000d4ba      0x74c /opt/msp430-47-expr/bin/../lib/gcc/msp430/4.7.0/../../../../msp430/lib/mcpu-430x/mmpy-16/msr20/mc20/libc.a(vuprintf.o)
                0x000000000000d4ba                vuprintf
 .any.text.puts
                0x000000000000dc06       0x2c /opt/msp430-47-expr/bin/../lib/gcc/msp430/4.7.0/../../../../msp430/lib/mcpu-430x/mmpy-16/msr20/mc20/libc.a(puts.o)
                0x000000000000dc06                puts
 .any.text.rand
                0x000000000000dc32       0x26 /opt/msp430-47-expr/bin/../lib/gcc/msp430/4.7.0/../../../../msp430/lib/mcpu-430x/mmpy-16/msr20/mc20/libc.a(rand.o)
                0x000000000000dc32                rand
 .any.text.srand
                0x000000000000dc58        0xa /opt/msp430-47-expr/bin/../lib/gcc/msp430/4.7.0/../../../../msp430/lib/mcpu-430x/mmpy-16/msr20/mc20/libc.a(rand.o)
                0x000000000000dc58                srand
 .any.text.memcmp
                0x000000000000dc62       0x2c /opt/msp430-47-expr/bin/../lib/gcc/msp430/4.7.0/../../../../msp430/lib/mcpu-430x/mmpy-16/msr20/mc20/libc.a(memcmp.o)
                0x000000000000dc62                memcmp
 .any.text.strcpy
                0x000000000000dc8e       0x14 /opt/msp430-47-expr/bin/../lib/gcc/msp430/4.7.0/../../../../msp430/lib/mcpu-430x/mmpy-16/msr20/mc20/libc.a(strcpy.o)
                0x000000000000dc8e                strcpy
 .any.text.memcpy
                0x000000000000dca2       0xe8 /opt/msp430-47-expr/bin/../lib/gcc/msp430/4.7.0/../../../../msp430/lib/mcpu-430x/mmpy-16/msr20/mc20/libc.a(memcpy.o)
                0x000000000000dca2                memcpy
 .any.text.memmove
                0x000000000000dd8a       0xe8 /opt/msp430-47-expr/bin/../lib/gcc/msp430/4.7.0/../../../../msp430/lib/mcpu-430x/mmpy-16/msr20/mc20/libc.a(memmove.o)
                0x000000000000dd8a                memmove
 .any.text.memset
                0x000000000000de72       0x5c /opt/msp430-47-expr/bin/../lib/gcc/msp430/4.7.0/../../../../msp430/lib/mcpu-430x/mmpy-16/msr20/mc20/libc.a(memset.o)
                0x000000000000de72                memset
 .any.text.strcat
                0x000000000000dece       0x1a /opt/msp430-47-expr/bin/../lib/gcc/msp430/4.7.0/../../../../msp430/lib/mcpu-430x/mmpy-16/msr20/mc20/libc.a(strcat.o)
                0x000000000000dece                strcat

.rodata         0x000000000000dee8      0x635
                0x000000000000dee8                . = ALIGN (0x2)
 *(.rodata .rodata.* .gnu.linkonce.r.*)
 .rodata.send_packet
                0x000000000000dee8       0x10 udp-malicious-client-controller-aware-version-attack.co
 .rodata.dio_output
                0x000000000000def8       0x33 udp-malicious-client-controller-aware-version-attack.co
 .rodata.process_thread_udp_client_process
                0x000000000000df2b      0x205 udp-malicious-client-controller-aware-version-attack.co
 .rodata.autostart_processes
                0x000000000000e130        0x4 udp-malicious-client-controller-aware-version-attack.co
                0x000000000000e130                autostart_processes
 .rodata        0x000000000000e134       0x13 udp-malicious-client-controller-aware-version-attack.co
 .rodata        0x000000000000e147      0x10e obj_z1/contiki-z1-main.o
 *fill*         0x000000000000e255        0x3 00
 .rodata.get_value
                0x000000000000e258       0x44 contiki-z1.a(cc2420.o)
 .rodata.set_value
                0x000000000000e29c       0x20 contiki-z1.a(cc2420.o)
 .rodata.cc2420_driver
                0x000000000000e2bc       0x38 contiki-z1.a(cc2420.o)
                0x000000000000e2bc                cc2420_driver
 .rodata        0x000000000000e2f4        0xe contiki-z1.a(cc2420.o)
 .rodata.output_power
                0x000000000000e302       0x10 contiki-z1.a(cc2420.o)
 .rodata        0x000000000000e312        0x8 contiki-z1.a(sensors.o)
 .rodata        0x000000000000e31a       0x25 contiki-z1.a(adxl345.o)
 *fill*         0x000000000000e33f        0x1 00
 .rodata.adxl345
                0x000000000000e340        0xe contiki-z1.a(adxl345.o)
                0x000000000000e340                adxl345
 .rodata        0x000000000000e34e        0xe contiki-z1.a(tmp102.o)
 .rodata.tmp102
                0x000000000000e35c        0xe contiki-z1.a(tmp102.o)
                0x000000000000e35c                tmp102
 .rodata        0x000000000000e36a        0xf contiki-z1.a(ctimer.o)
 .rodata        0x000000000000e379        0xc contiki-z1.a(etimer.o)
 *fill*         0x000000000000e385        0x3 00
 .rodata.uip_process
                0x000000000000e388       0x8c contiki-z1.a(uip6.o)
 .rodata.uip_ds6_nbr_rm
                0x000000000000e414       0x1d contiki-z1.a(uip-ds6-nbr.o)
 .rodata        0x000000000000e431        0xb contiki-z1.a(sicslowpan.o)
 .rodata.sicslowpan_driver
                0x000000000000e43c        0xa contiki-z1.a(sicslowpan.o)
                0x000000000000e43c                sicslowpan_driver
 .rodata.llprefix
                0x000000000000e446        0x2 contiki-z1.a(sicslowpan.o)
                0x000000000000e446                llprefix
 .rodata.unc_mxconf
                0x000000000000e448        0x4 contiki-z1.a(sicslowpan.o)
                0x000000000000e448                unc_mxconf
 .rodata.unc_ctxconf
                0x000000000000e44c        0x4 contiki-z1.a(sicslowpan.o)
                0x000000000000e44c                unc_ctxconf
 .rodata.unc_llconf
                0x000000000000e450        0x4 contiki-z1.a(sicslowpan.o)
                0x000000000000e450                unc_llconf
 .rodata.ttl_values
                0x000000000000e454        0x4 contiki-z1.a(sicslowpan.o)
 .rodata        0x000000000000e458        0xd contiki-z1.a(tcpip.o)
 .rodata.uip_debug_ipaddr_print
                0x000000000000e465       0x28 contiki-z1.a(uip-debug.o)
 *fill*         0x000000000000e48d        0x1 00
 .rodata.linkaddr_null
                0x000000000000e48e        0x8 contiki-z1.a(linkaddr.o)
                0x000000000000e48e                linkaddr_null
 .rodata.framer_802154
                0x000000000000e496        0xc contiki-z1.a(framer-802154.o)
                0x000000000000e496                framer_802154
 .rodata        0x000000000000e4a2        0x5 contiki-z1.a(csma.o)
 *fill*         0x000000000000e4a7        0x1 00
 .rodata.csma_driver
                0x000000000000e4a8       0x1a contiki-z1.a(csma.o)
                0x000000000000e4a8                csma_driver
 .rodata.CSWTCH.16
                0x000000000000e4c2        0x2 contiki-z1.a(frame802154.o)
 .rodata        0x000000000000e4c4        0x8 contiki-z1.a(nullrdc.o)
 .rodata.nullrdc_driver
                0x000000000000e4cc       0x1e contiki-z1.a(nullrdc.o)
                0x000000000000e4cc                nullrdc_driver
 .rodata        0x000000000000e4ea        0x8 contiki-z1.a(nullsec.o)
 .rodata.nullsec_driver
                0x000000000000e4f2        0xe contiki-z1.a(nullsec.o)
                0x000000000000e4f2                nullsec_driver
 .rodata        0x000000000000e500        0x7 contiki-z1.a(button-sensor.o)
 *fill*         0x000000000000e507        0x1 00
 .rodata.button_sensor
                0x000000000000e508        0xe contiki-z1.a(button-sensor.o)
                0x000000000000e508                button_sensor
 .rodata.vuprintf
                0x000000000000e516        0x7 /opt/msp430-47-expr/bin/../lib/gcc/msp430/4.7.0/../../../../msp430/lib/mcpu-430x/mmpy-16/msr20/mc20/libc.a(vuprintf.o)
 *(.near.rodata .near.rodata.*)
                0x000000000000e51e                . = ALIGN (0x2)
                0x000000000000e51e                _etext = .

.data           0x0000000000001100      0x150 load address 0x000000000000e51e
                0x0000000000001100                . = ALIGN (0x2)
                0x0000000000001100                __data_start = .
 *(.data .data.* .gnu.linkonce.d.*)
 .data.udp_client_process
                0x0000000000001100        0xc udp-malicious-client-controller-aware-version-attack.co
                0x0000000000001100                udp_client_process
 .data.dao_sequence
                0x000000000000110c        0x1 udp-malicious-client-controller-aware-version-attack.co
 *fill*         0x000000000000110d        0x1 00
 .data.dis_handler
                0x000000000000110e        0x8 udp-malicious-client-controller-aware-version-attack.co
 .data.dio_handler
                0x0000000000001116        0x8 udp-malicious-client-controller-aware-version-attack.co
 .data.dao_handler
                0x000000000000111e        0x8 udp-malicious-client-controller-aware-version-attack.co
 .data.dao_ack_handler
                0x0000000000001126        0x8 udp-malicious-client-controller-aware-version-attack.co
 .data.cur_break
                0x000000000000112e        0x2 contiki-z1.a(msp430.o)
 .data.cc2420_process
                0x0000000000001130        0xc contiki-z1.a(cc2420.o)
                0x0000000000001130                cc2420_process
 .data.send_on_cca
                0x000000000000113c        0x1 contiki-z1.a(cc2420.o)
 *fill*         0x000000000000113d        0x1 00
 .data.sensors_process
                0x000000000000113e        0xc contiki-z1.a(sensors.o)
                0x000000000000113e                sensors_process
 .data.sensors  0x000000000000114a        0x8 contiki-z1.a(z1-sensors.o)
                0x000000000000114a                sensors
 .data.accmeter_process
                0x0000000000001152        0xc contiki-z1.a(adxl345.o)
                0x0000000000001152                accmeter_process
 .data.adxl345_default_settings
                0x000000000000115e       0x16 contiki-z1.a(adxl345.o)
 .data.ctimer_process
                0x0000000000001174        0xc contiki-z1.a(ctimer.o)
                0x0000000000001174                ctimer_process
 .data.etimer_process
                0x0000000000001180        0xc contiki-z1.a(etimer.o)
                0x0000000000001180                etimer_process
 .data.echo_request_handler
                0x000000000000118c        0x8 contiki-z1.a(uip-icmp6.o)
 .data.echo_reply_handler
                0x0000000000001194        0x8 contiki-z1.a(uip-icmp6.o)
 .data.nbr_routes
                0x000000000000119c        0x2 contiki-z1.a(uip-ds6-route.o)
                0x000000000000119c                nbr_routes
 .data.routememb
                0x000000000000119e        0x8 contiki-z1.a(uip-ds6-route.o)
 .data.defaultroutermemb
                0x00000000000011a6        0x8 contiki-z1.a(uip-ds6-route.o)
 .data.neighborroutememb
                0x00000000000011ae        0x8 contiki-z1.a(uip-ds6-route.o)
 .data.nbr_routes_struct
                0x00000000000011b6        0xa contiki-z1.a(uip-ds6-route.o)
 .data.ds6_neighbors
                0x00000000000011c0        0x2 contiki-z1.a(uip-ds6-nbr.o)
                0x00000000000011c0                ds6_neighbors
 .data.ds6_neighbors_struct
                0x00000000000011c2        0xa contiki-z1.a(uip-ds6-nbr.o)
 .data.ns_input_handler
                0x00000000000011cc        0x8 contiki-z1.a(uip-nd6.o)
 .data.tcpip_process
                0x00000000000011d4        0xc contiki-z1.a(tcpip.o)
                0x00000000000011d4                tcpip_process
 .data.rpl_parents
                0x00000000000011e0        0x2 contiki-z1.a(rpl-dag.o)
                0x00000000000011e0                rpl_parents
 .data.rpl_parents_struct
                0x00000000000011e2        0xa contiki-z1.a(rpl-dag.o)
 .data.buframmem
                0x00000000000011ec        0x8 contiki-z1.a(queuebuf.o)
 .data.bufmem   0x00000000000011f4        0x8 contiki-z1.a(queuebuf.o)
 .data.neighbor_addr_mem
                0x00000000000011fc        0x8 contiki-z1.a(nbr-table.o)
 .data.link_stats_struct
                0x0000000000001204        0xa contiki-z1.a(link-stats.o)
 .data.neighbor_memb
                0x000000000000120e        0x8 contiki-z1.a(csma.o)
 .data.packet_memb
                0x0000000000001216        0x8 contiki-z1.a(csma.o)
 .data.metadata_memb
                0x000000000000121e        0x8 contiki-z1.a(csma.o)
 .data.mac_pan_id
                0x0000000000001226        0x2 contiki-z1.a(frame802154.o)
 .data.prescale_lsb
                0x0000000000001228        0x1 contiki-z1.a(i2cmaster.o)
                0x0000000000001228                prescale_lsb
 *fill*         0x0000000000001229        0x1 00
 .data.rpl_mrhof
                0x000000000000122a       0x22 contiki-z1.a(rpl-mrhof.o)
                0x000000000000122a                rpl_mrhof
 .data.next     0x000000000000124c        0x4 /opt/msp430-47-expr/bin/../lib/gcc/msp430/4.7.0/../../../../msp430/lib/mcpu-430x/mmpy-16/msr20/mc20/libc.a(rand.o)
 *(.near.data .near.data.*)
                0x0000000000001250                . = ALIGN (0x2)
                0x0000000000001250                _edata = .
                0x000000000000e51e                __data_load_start = LOADADDR (.data)
                0x0000000000000150                __data_size = SIZEOF (.data)

.bss            0x0000000000001250     0x1a30 load address 0x000000000000e66e
                0x0000000000001250                __bss_start = .
 *(.bss .bss.*)
 .bss.client_conn
                0x0000000000001250        0x2 udp-malicious-client-controller-aware-version-attack.co
 .bss.server_conn
                0x0000000000001252        0x2 udp-malicious-client-controller-aware-version-attack.co
 .bss.periodic.3827
                0x0000000000001254        0xc udp-malicious-client-controller-aware-version-attack.co
 .bss.backoff_timer.3828
                0x0000000000001260       0x16 udp-malicious-client-controller-aware-version-attack.co
 .bss.counter   0x0000000000001276        0x2 udp-malicious-client-controller-aware-version-attack.co
 .bss.server_ipaddr
                0x0000000000001278       0x10 udp-malicious-client-controller-aware-version-attack.co
 .bss.seq_id    0x0000000000001288        0x2 udp-malicious-client-controller-aware-version-attack.co
 .bss.my_cur_parent
                0x000000000000128a        0x2 udp-malicious-client-controller-aware-version-attack.co
 .bss.dao_preffered_parent
                0x000000000000128c        0x2 udp-malicious-client-controller-aware-version-attack.co
 .bss.dao_preffered_parent_ip
                0x000000000000128e        0x2 udp-malicious-client-controller-aware-version-attack.co
 .bss.my_cur_parent_ip
                0x0000000000001290        0x2 udp-malicious-client-controller-aware-version-attack.co
 .bss.dao_prefix_own_ip
                0x0000000000001292       0x10 udp-malicious-client-controller-aware-version-attack.co
 .bss.irq_energest.4262
                0x00000000000012a2        0x4 obj_z1/contiki-z1-main.o
 .bss.leds      0x00000000000012a6        0x1 contiki-z1.a(leds.o)
 *fill*         0x00000000000012a7        0x1 00
 .bss.counter   0x00000000000012a8        0x2 contiki-z1.a(watchdog.o)
 .bss.poll_mode
                0x00000000000012aa        0x1 contiki-z1.a(cc2420.o)
 *fill*         0x00000000000012ab        0x1 00
 .bss.last_packet_timestamp
                0x00000000000012ac        0x2 contiki-z1.a(cc2420.o)
 .bss.locked    0x00000000000012ae        0x1 contiki-z1.a(cc2420.o)
 .bss.lock_on   0x00000000000012af        0x1 contiki-z1.a(cc2420.o)
 .bss.lock_off  0x00000000000012b0        0x1 contiki-z1.a(cc2420.o)
 .bss.receive_on
                0x00000000000012b1        0x1 contiki-z1.a(cc2420.o)
 .bss.channel   0x00000000000012b2        0x2 contiki-z1.a(cc2420.o)
 .bss.node_id   0x00000000000012b4        0x2 contiki-z1.a(node-id.o)
                0x00000000000012b4                node_id
 .bss.num_sensors
                0x00000000000012b6        0x1 contiki-z1.a(sensors.o)
 *fill*         0x00000000000012b7        0x1 00
 .bss.i.2119    0x00000000000012b8        0x2 contiki-z1.a(sensors.o)
 .bss.events.2120
                0x00000000000012ba        0x2 contiki-z1.a(sensors.o)
 .bss.transmitting
                0x00000000000012bc        0x1 contiki-z1.a(uart0.o)
 *fill*         0x00000000000012bd        0x1 00
 .bss.uart0_input_handler
                0x00000000000012be        0x4 contiki-z1.a(uart0.o)
 .bss.enabled   0x00000000000012c2        0x1 contiki-z1.a(adxl345.o)
 *fill*         0x00000000000012c3        0x1 00
 .bss.int1_mask
                0x00000000000012c4        0x2 contiki-z1.a(adxl345.o)
 .bss.int2_mask
                0x00000000000012c6        0x2 contiki-z1.a(adxl345.o)
 .bss.suppressTimer1
                0x00000000000012c8        0x8 contiki-z1.a(adxl345.o)
 .bss.suppressTimer2
                0x00000000000012d0        0x8 contiki-z1.a(adxl345.o)
 .bss.enabled   0x00000000000012d8        0x1 contiki-z1.a(tmp102.o)
 *fill*         0x00000000000012d9        0x1 00
 .bss.last_tar  0x00000000000012da        0x2 contiki-z1.a(clock.o)
 .bss.count     0x00000000000012dc        0x4 contiki-z1.a(clock.o)
 .bss.seconds   0x00000000000012e0        0x4 contiki-z1.a(clock.o)
 .bss.initialized
                0x00000000000012e4        0x1 contiki-z1.a(ctimer.o)
 *fill*         0x00000000000012e5        0x1 00
 .bss.ctimer_list_list
                0x00000000000012e6        0x2 contiki-z1.a(ctimer.o)
 .bss.timerlist
                0x00000000000012e8        0x2 contiki-z1.a(etimer.o)
 .bss.next_expiration
                0x00000000000012ea        0x4 contiki-z1.a(etimer.o)
 .bss.poll_requested
                0x00000000000012ee        0x1 contiki-z1.a(process.o)
 *fill*         0x00000000000012ef        0x1 00
 .bss.process_current
                0x00000000000012f0        0x2 contiki-z1.a(process.o)
                0x00000000000012f0                process_current
 .bss.process_list
                0x00000000000012f2        0x2 contiki-z1.a(process.o)
                0x00000000000012f2                process_list
 .bss.lastevent
                0x00000000000012f4        0x1 contiki-z1.a(process.o)
 .bss.fevent    0x00000000000012f5        0x1 contiki-z1.a(process.o)
 .bss.nevents   0x00000000000012f6        0x1 contiki-z1.a(process.o)
 *fill*         0x00000000000012f7        0x1 00
 .bss.events    0x00000000000012f8       0x30 contiki-z1.a(process.o)
 .bss.next_rtimer
                0x0000000000001328        0x2 contiki-z1.a(rtimer.o)
 .bss.input_handler_list_list
                0x000000000000132a        0x2 contiki-z1.a(uip-icmp6.o)
 .bss.tmp_ipaddr
                0x000000000000132c       0x10 contiki-z1.a(uip-icmp6.o)
 .bss.echo_reply_callback_list_list
                0x000000000000133c        0x2 contiki-z1.a(uip-icmp6.o)
 .bss.loc_fipaddr
                0x000000000000133e       0x10 contiki-z1.a(uip-ds6.o)
 .bss.locaddr   0x000000000000134e        0x2 contiki-z1.a(uip-ds6.o)
 .bss.locprefix
                0x0000000000001350        0x2 contiki-z1.a(uip-ds6.o)
 .bss.locmaddr  0x0000000000001352        0x2 contiki-z1.a(uip-ds6.o)
 .bss.notificationlist_list
                0x0000000000001354        0x2 contiki-z1.a(uip-ds6-route.o)
 .bss.defaultrouterlist_list
                0x0000000000001356        0x2 contiki-z1.a(uip-ds6-route.o)
 .bss.routelist_list
                0x0000000000001358        0x2 contiki-z1.a(uip-ds6-route.o)
 .bss.num_routes
                0x000000000000135a        0x2 contiki-z1.a(uip-ds6-route.o)
 .bss.routememb_memb_count
                0x000000000000135c       0x1e contiki-z1.a(uip-ds6-route.o)
 .bss.routememb_memb_mem
                0x000000000000137a      0x3c0 contiki-z1.a(uip-ds6-route.o)
 .bss.defaultroutermemb_memb_count
                0x000000000000173a        0x2 contiki-z1.a(uip-ds6-route.o)
 .bss.defaultroutermemb_memb_mem
                0x000000000000173c       0x38 contiki-z1.a(uip-ds6-route.o)
 .bss.neighborroutememb_memb_count
                0x0000000000001774       0x1e contiki-z1.a(uip-ds6-route.o)
 .bss.neighborroutememb_memb_mem
                0x0000000000001792       0x78 contiki-z1.a(uip-ds6-route.o)
 .bss._nbr_routes_mem
                0x000000000000180a       0x28 contiki-z1.a(uip-ds6-route.o)
 .bss.intercept_on
                0x0000000000001832        0x1 contiki-z1.a(uip6.o)
                0x0000000000001832                intercept_on
 .bss.uip_ext_opt_offset
                0x0000000000001833        0x1 contiki-z1.a(uip6.o)
                0x0000000000001833                uip_ext_opt_offset
 .bss.uip_ext_len
                0x0000000000001834        0x1 contiki-z1.a(uip6.o)
                0x0000000000001834                uip_ext_len
 .bss.uip_ext_bitmap
                0x0000000000001835        0x1 contiki-z1.a(uip6.o)
                0x0000000000001835                uip_ext_bitmap
 .bss.lastport  0x0000000000001836        0x2 contiki-z1.a(uip6.o)
 .bss.iss       0x0000000000001838        0x4 contiki-z1.a(uip6.o)
 .bss._ds6_neighbors_mem
                0x000000000000183c       0xb4 contiki-z1.a(uip-ds6-nbr.o)
 .bss.nd6_opt_llao
                0x00000000000018f0        0x2 contiki-z1.a(uip-nd6.o)
 .bss.nd6_opt_offset
                0x00000000000018f2        0x1 contiki-z1.a(uip-nd6.o)
 *fill*         0x00000000000018f3        0x1 00
 .bss.nbr       0x00000000000018f4        0x2 contiki-z1.a(uip-nd6.o)
 .bss.addr      0x00000000000018f6        0x2 contiki-z1.a(uip-nd6.o)
 .bss.callback  0x00000000000018f8        0x2 contiki-z1.a(sicslowpan.o)
 .bss.addr_contexts
                0x00000000000018fa       0x14 contiki-z1.a(sicslowpan.o)
 .bss.uncomp_hdr_len
                0x000000000000190e        0x1 contiki-z1.a(sicslowpan.o)
 .bss.packetbuf_hdr_len
                0x000000000000190f        0x1 contiki-z1.a(sicslowpan.o)
 .bss.packetbuf_ptr
                0x0000000000001910        0x2 contiki-z1.a(sicslowpan.o)
 .bss.last_tx_status
                0x0000000000001912        0x2 contiki-z1.a(sicslowpan.o)
 .bss.my_tag    0x0000000000001914        0x2 contiki-z1.a(sicslowpan.o)
 .bss.packetbuf_payload_len
                0x0000000000001916        0x2 contiki-z1.a(sicslowpan.o)
 .bss.hc06_ptr  0x0000000000001918        0x2 contiki-z1.a(sicslowpan.o)
 .bss.context   0x000000000000191a        0x2 contiki-z1.a(sicslowpan.o)
 .bss.last_rssi
                0x000000000000191c        0x2 contiki-z1.a(sicslowpan.o)
 .bss.frag_info
                0x000000000000191e      0x168 contiki-z1.a(sicslowpan.o)
 .bss.frag_buf  0x0000000000001a86      0x558 contiki-z1.a(sicslowpan.o)
 .bss.outputfunc
                0x0000000000001fde        0x4 contiki-z1.a(tcpip.o)
 .bss.s         0x0000000000001fe2       0x22 contiki-z1.a(tcpip.o)
 .bss.periodic  0x0000000000002004        0xc contiki-z1.a(tcpip.o)
 .bss.next_dis  0x0000000000002010        0x2 contiki-z1.a(rpl-timers.o)
 .bss.periodic_timer
                0x0000000000002012       0x16 contiki-z1.a(rpl-timers.o)
 .bss.dio_send_ok
                0x0000000000002028        0x1 contiki-z1.a(rpl-timers.o)
 *fill*         0x0000000000002029        0x1 00
 .bss.mode      0x000000000000202a        0x2 contiki-z1.a(rpl.o)
 .bss._rpl_parents_mem
                0x000000000000202c       0x3c contiki-z1.a(rpl-dag.o)
 .bss.buframmem_memb_count
                0x0000000000002068        0x4 contiki-z1.a(queuebuf.o)
 .bss.buframmem_memb_mem
                0x000000000000206c      0x2c0 contiki-z1.a(queuebuf.o)
 .bss.bufmem_memb_count
                0x000000000000232c        0x4 contiki-z1.a(queuebuf.o)
 .bss.bufmem_memb_mem
                0x0000000000002330        0x8 contiki-z1.a(queuebuf.o)
 .bss.num_tables
                0x0000000000002338        0x2 contiki-z1.a(nbr-table.o)
 .bss.all_tables
                0x000000000000233a       0x10 contiki-z1.a(nbr-table.o)
 .bss.used_map  0x000000000000234a        0xa contiki-z1.a(nbr-table.o)
 .bss.nbr_table_keys_list
                0x0000000000002354        0x2 contiki-z1.a(nbr-table.o)
 .bss.locked_map
                0x0000000000002356        0xa contiki-z1.a(nbr-table.o)
 .bss.neighbor_addr_mem_memb_count
                0x0000000000002360        0xa contiki-z1.a(nbr-table.o)
 .bss.neighbor_addr_mem_memb_mem
                0x000000000000236a       0x64 contiki-z1.a(nbr-table.o)
 .bss.bufptr    0x00000000000023ce        0x2 contiki-z1.a(packetbuf.o)
 .bss.buflen    0x00000000000023d0        0x2 contiki-z1.a(packetbuf.o)
 .bss.hdrlen    0x00000000000023d2        0x1 contiki-z1.a(packetbuf.o)
 *fill*         0x00000000000023d3        0x1 00
 .bss.packetbuf_aligned
                0x00000000000023d4       0x80 contiki-z1.a(packetbuf.o)
 .bss._link_stats_mem
                0x0000000000002454       0x64 contiki-z1.a(link-stats.o)
 .bss.initialized
                0x00000000000024b8        0x1 contiki-z1.a(framer-802154.o)
 .bss.mac_dsn   0x00000000000024b9        0x1 contiki-z1.a(framer-802154.o)
 .bss.initialized.2935
                0x00000000000024ba        0x1 contiki-z1.a(csma.o)
 *fill*         0x00000000000024bb        0x1 00
 .bss.seqno.2936
                0x00000000000024bc        0x2 contiki-z1.a(csma.o)
 .bss.neighbor_list_list
                0x00000000000024be        0x2 contiki-z1.a(csma.o)
 .bss.neighbor_memb_memb_count
                0x00000000000024c0        0x2 contiki-z1.a(csma.o)
 .bss.neighbor_memb_memb_mem
                0x00000000000024c2       0x4c contiki-z1.a(csma.o)
 .bss.packet_memb_memb_count
                0x000000000000250e        0x4 contiki-z1.a(csma.o)
 .bss.packet_memb_memb_mem
                0x0000000000002512       0x18 contiki-z1.a(csma.o)
 .bss.metadata_memb_memb_count
                0x000000000000252a        0x4 contiki-z1.a(csma.o)
 .bss.metadata_memb_memb_mem
                0x000000000000252e       0x20 contiki-z1.a(csma.o)
 .bss.tx_byte_tot
                0x000000000000254e        0x1 contiki-z1.a(i2cmaster.o)
 .bss.rx_byte_tot
                0x000000000000254f        0x1 contiki-z1.a(i2cmaster.o)
 .bss.prescale_msb
                0x0000000000002550        0x1 contiki-z1.a(i2cmaster.o)
                0x0000000000002550                prescale_msb
 *fill*         0x0000000000002551        0x1 00
 .bss.debouncetimer
                0x0000000000002552        0x8 contiki-z1.a(button-sensor.o)
 .bss.num_children
                0x000000000000255a        0x2 contiki-z1.a(rpl-nbr-policy.)
 .bss.worst_rank_nbr
                0x000000000000255c        0x2 contiki-z1.a(rpl-nbr-policy.)
 .bss.timer_init
                0x000000000000255e        0x2 contiki-z1.a(rpl-nbr-policy.)
 .bss.periodic_timer
                0x0000000000002560       0x16 contiki-z1.a(rpl-nbr-policy.)
 .bss.worst_rank
                0x0000000000002576        0x2 contiki-z1.a(rpl-nbr-policy.)
 .bss.num_parents
                0x0000000000002578        0x2 contiki-z1.a(rpl-nbr-policy.)
 .bss.num_free  0x000000000000257a        0x2 contiki-z1.a(rpl-nbr-policy.)
 .bss.received_seqnos
                0x000000000000257c       0xe0 contiki-z1.a(mac-sequence.o)
 .bss.destination_
                0x000000000000265c        0x2 /opt/msp430-47-expr/bin/../lib/gcc/msp430/4.7.0/../../../../msp430/lib/mcpu-430x/mmpy-16/msr20/mc20/libc.a(sprintf.o)
 .bss.available_
                0x000000000000265e        0x2 /opt/msp430-47-expr/bin/../lib/gcc/msp430/4.7.0/../../../../msp430/lib/mcpu-430x/mmpy-16/msr20/mc20/libc.a(sprintf.o)
 *(.near.bss .near.bss.*)
 *(COMMON)
 COMMON         0x0000000000002660        0x2 contiki-z1.a(msp430.o)
                0x0000000000002660                msp430_dco_required
 COMMON         0x0000000000002662       0x10 contiki-z1.a(cc2420.o)
                0x0000000000002662                cc2420_last_rssi
                0x0000000000002664                cc2420_sfd_start_time
                0x0000000000002666                cc2420_time_of_departure
                0x0000000000002668                cc2420_time_of_arrival
                0x000000000000266a                cc2420_last_correlation
                0x000000000000266c                cc2420_authority_level_of_sender
                0x000000000000266e                cc2420_sfd_counter
                0x0000000000002670                cc2420_sfd_end_time
 COMMON         0x0000000000002672        0x8 contiki-z1.a(node-id.o)
                0x0000000000002672                node_mac
 COMMON         0x000000000000267a        0x1 contiki-z1.a(sensors.o)
                0x000000000000267a                sensors_event
 COMMON         0x000000000000267b        0x4 contiki-z1.a(z1-sensors.o)
                0x000000000000267b                sensors_flags
 *fill*         0x000000000000267f        0x1 00
 COMMON         0x0000000000002680        0x8 contiki-z1.a(adxl345.o)
                0x0000000000002680                accm_int2_cb
                0x0000000000002684                accm_int1_cb
 COMMON         0x0000000000002688       0x56 contiki-z1.a(energest.o)
                0x0000000000002688                energest_total_time
                0x00000000000026b8                energest_total_count
                0x00000000000026ba                energest_current_mode
                0x00000000000026c6                energest_current_time
 COMMON         0x00000000000026de        0x1 contiki-z1.a(process.o)
                0x00000000000026de                process_maxevents
 *fill*         0x00000000000026df        0x1 00
 COMMON         0x00000000000026e0      0x15c contiki-z1.a(uip-ds6.o)
                0x00000000000026e0                uip_ds6_timer_ra
                0x00000000000026e8                uip_ds6_if
                0x00000000000027d4                uip_ds6_netif_addr_list_offset
                0x00000000000027d5                uip_ds6_addr_size
                0x00000000000027d6                uip_ds6_prefix_list
                0x0000000000002830                uip_ds6_timer_periodic
 COMMON         0x000000000000283c      0x2de contiki-z1.a(uip6.o)
                0x000000000000283c                uip_len
                0x000000000000283e                uip_sappdata
                0x0000000000002840                uip_acc32
                0x0000000000002844                uip_lladdr
                0x000000000000284c                uip_aligned_buf
                0x00000000000028d8                uip_flags
                0x00000000000028da                uip_next_hdr
                0x00000000000028dc                uip_udp_conn
                0x00000000000028de                uip_appdata
                0x00000000000028e0                uip_conn
                0x00000000000028e2                uip_conns
                0x0000000000002992                uip_listenports
                0x00000000000029a2                uip_stat
                0x00000000000029e0                uip_slen
                0x00000000000029e2                uip_udp_conns
 COMMON         0x0000000000002b1a        0x1 contiki-z1.a(tcpip.o)
                0x0000000000002b1a                tcpip_event
 *fill*         0x0000000000002b1b        0x1 00
 COMMON         0x0000000000002b1c      0x10a contiki-z1.a(rpl-dag.o)
                0x0000000000002b1c                default_instance
                0x0000000000002b1e                instance_table
 COMMON         0x0000000000002c26       0x2e contiki-z1.a(packetbuf.o)
                0x0000000000002c26                packetbuf_addrs
                0x0000000000002c36                packetbuf_attrs
 COMMON         0x0000000000002c54        0x8 contiki-z1.a(linkaddr.o)
                0x0000000000002c54                linkaddr_node_addr
 COMMON         0x0000000000002c5c       0x16 contiki-z1.a(link-stats.o)
                0x0000000000002c5c                periodic_timer
 COMMON         0x0000000000002c72        0xe contiki-z1.a(i2cmaster.o)
                0x0000000000002c72                transmit_data1
                0x0000000000002c73                rx_byte_ctr
                0x0000000000002c74                tx_buf_ptr
                0x0000000000002c76                tx_byte_ctr
                0x0000000000002c78                i
                0x0000000000002c7a                receive_data
                0x0000000000002c7b                rx_buf
                0x0000000000002c7d                transmit_data2
                0x0000000000002c7e                rx_buf_ptr
                0x0000000000002c80                . = ALIGN (0x2)
                0x0000000000002c80                __bss_end = .
                0x0000000000001a30                __bss_size = SIZEOF (.bss)

.noinit         0x0000000000002c80        0x2 load address 0x000000000000e66e
                0x0000000000002c80                . = ALIGN (0x2)
                0x0000000000002c80                __noinit_start = .
 *(.noinit .noinit.*)
 .noinit.crt0   0x0000000000002c80        0x2 /opt/msp430-47-expr/bin/../lib/gcc/msp430/4.7.0/mcpu-430x/mmpy-16/msr20/mc20/libcrt0.a(__watchdog_support.o)
                0x0000000000002c80                __wdt_clear_value
                0x0000000000002c82                . = ALIGN (0x2)
                0x0000000000002c82                __noinit_end = .
                0x0000000000002c82                . = ALIGN (0x2)
                0x0000000000002c82                _end = .

.infomem        0x0000000000001000        0x0
                0x0000000000001000                . = ALIGN (0x2)
 *(.infomem .infomem.*)

.infomemnobits  0x0000000000001000        0x0
                0x0000000000001000                . = ALIGN (0x2)
 *(.infomemnobits .infomemnobits.*)

.infoa          0x00000000000010c0        0x0
                0x00000000000010c0                . = ALIGN (0x2)
 *(.infoa .infoa.*)

.infob          0x0000000000001080        0x0
                0x0000000000001080                . = ALIGN (0x2)
 *(.infob .infob.*)

.infoc          0x0000000000001040        0x0
                0x0000000000001040                . = ALIGN (0x2)
 *(.infoc .infoc.*)

.infod          0x0000000000001000        0x0
                0x0000000000001000                . = ALIGN (0x2)
 *(.infod .infod.*)
                0x000000000000ffff                PROVIDE (__vte_0, 0xffff)
                0x000000000000ffff                PROVIDE (__vte_1, 0xffff)
                0x000000000000ffff                PROVIDE (__vte_2, 0xffff)
                0x000000000000ffff                PROVIDE (__vte_3, 0xffff)
                0x000000000000ffff                PROVIDE (__vte_4, 0xffff)
                0x000000000000ffff                PROVIDE (__vte_5, 0xffff)
                0x000000000000ffff                PROVIDE (__vte_6, 0xffff)
                0x000000000000ffff                PROVIDE (__vte_7, 0xffff)
                0x000000000000ffff                PROVIDE (__vte_8, 0xffff)
                0x000000000000ffff                PROVIDE (__vte_9, 0xffff)
                0x000000000000ffff                PROVIDE (__vte_10, 0xffff)
                0x000000000000ffff                PROVIDE (__vte_11, 0xffff)
                0x000000000000ffff                PROVIDE (__vte_12, 0xffff)
                0x000000000000ffff                PROVIDE (__vte_13, 0xffff)
                0x000000000000ffff                PROVIDE (__vte_14, 0xffff)
                0x000000000000ffff                PROVIDE (__vte_15, 0xffff)
                0x000000000000ffff                PROVIDE (__vte_16, 0xffff)
                0x000000000000ffff                PROVIDE (__vte_17, 0xffff)
                0x000000000000ffff                PROVIDE (__vte_18, 0xffff)
                0x000000000000ffff                PROVIDE (__vte_19, 0xffff)
                0x000000000000ffff                PROVIDE (__vte_20, 0xffff)
                0x000000000000ffff                PROVIDE (__vte_21, 0xffff)
                0x000000000000ffff                PROVIDE (__vte_22, 0xffff)
                0x000000000000ffff                PROVIDE (__vte_23, 0xffff)
                0x000000000000ffff                PROVIDE (__vte_24, 0xffff)
                0x000000000000ffff                PROVIDE (__vte_25, 0xffff)
                0x000000000000ffff                PROVIDE (__vte_26, 0xffff)
                0x000000000000ffff                PROVIDE (__vte_27, 0xffff)
                0x000000000000ffff                PROVIDE (__vte_28, 0xffff)
                0x000000000000ffff                PROVIDE (__vte_29, 0xffff)
                0x000000000000ffff                PROVIDE (__vte_30, 0xffff)
                0x000000000000ffff                PROVIDE (__vte_31, 0xffff)

.vectors        0x000000000000ffc0       0x40
                0x000000000000ffc0                __vectors_start = .
 *(.vectors*)
 .vectors       0x000000000000ffc0       0x40 /opt/msp430-47-expr/bin/../lib/gcc/msp430/4.7.0/mcpu-430x/mmpy-16/msr20/mc20/crt0ivtbl32.o
                0x000000000000ffc0                __ivtbl_32
                0x0000000000010000                _vectors_end = .

.fartext        0x0000000000010000        0x0
                0x0000000000010000                . = ALIGN (0x2)
 *(.fartext .fartext.*)

.far.text       0x0000000000010000        0x0
                0x0000000000010000                . = ALIGN (0x2)
 *(.far.text .far.text.*)

.far.rodata     0x0000000000010000        0x0
                0x0000000000010000                . = ALIGN (0x2)
 *(.far.rodata .far.rodata.*)
                0x0000000000010000                . = ALIGN (0x2)
                0x0000000000010000                _efartext = .

.far.data       0x0000000000000000        0x0 load address 0x0000000000010000
                0x0000000000000000                . = ALIGN (0x2)
                0x0000000000000000                __far_data_start = .
 *(.far.data .far.data.*)
                0x0000000000000000                . = ALIGN (0x2)
                0x0000000000000000                _efardata = .
                0x0000000000010000                __far_data_load_start = LOADADDR (.far.data)
                0x0000000000000000                __far_data_size = SIZEOF (.far.data)

.far.bss        0x0000000000000000        0x0 load address 0x0000000000010000
                0x0000000000000000                . = ALIGN (0x2)
                0x0000000000000000                __far_bss_start = .
 *(.far.bss .far.bss.*)
                0x0000000000000000                . = ALIGN (0x2)
                0x0000000000000000                __far_bss_end = .
                0x0000000000000000                __far_bss_size = SIZEOF (.far.bss)
                0x0000000000000000                . = ALIGN (0x2)
                0x0000000000000000                _far_end = .

.profiler
 *(.profiler)

.stab           0x0000000000000000    0x2b3e0
 *(.stab)
 .stab          0x0000000000000000     0x2e2c udp-malicious-client-controller-aware-version-attack.co
 .stab          0x0000000000002e2c     0x16c8 obj_z1/contiki-z1-main.o
                                       0x1b6c (size before relaxing)
 .stab          0x00000000000044f4      0x240 contiki-z1.a(contiki-z1-plat)
                                        0x5ac (size before relaxing)
 .stab          0x0000000000004734      0x570 contiki-z1.a(msp430.o)
                                        0x8dc (size before relaxing)
 .stab          0x0000000000004ca4      0x5a0 contiki-z1.a(leds.o)
                                        0x804 (size before relaxing)
 .stab          0x0000000000005244      0x3cc contiki-z1.a(watchdog.o)
                                        0x738 (size before relaxing)
 .stab          0x0000000000005610      0x99c contiki-z1.a(xmem.o)
                                        0xef4 (size before relaxing)
 .stab          0x0000000000005fac      0x27c contiki-z1.a(spi.o)
                                        0x5e8 (size before relaxing)
 .stab          0x0000000000006228     0x2868 contiki-z1.a(cc2420.o)
                                       0x2fac (size before relaxing)
 .stab          0x0000000000008a90      0x684 contiki-z1.a(cc2420-arch.o)
                                       0x16bc (size before relaxing)
 .stab          0x0000000000009114      0x300 contiki-z1.a(node-id.o)
                                        0x6f0 (size before relaxing)
 .stab          0x0000000000009414      0x69c contiki-z1.a(sensors.o)
                                        0xbd0 (size before relaxing)
 .stab          0x0000000000009ab0      0x51c contiki-z1.a(uart0.o)
                                        0xa44 (size before relaxing)
 .stab          0x0000000000009fcc      0x234 contiki-z1.a(uart0-putchar.o)
                                        0x5a0 (size before relaxing)
 .stab          0x000000000000a200      0x3a8 contiki-z1.a(z1-sensors.o)
                                        0x7a4 (size before relaxing)
 .stab          0x000000000000a5a8      0xd5c contiki-z1.a(adxl345.o)
                                       0x13a4 (size before relaxing)
 .stab          0x000000000000b304      0x810 contiki-z1.a(tmp102.o)
                                        0xd80 (size before relaxing)
 .stab          0x000000000000bb14      0x930 contiki-z1.a(clock.o)
                                        0xc9c (size before relaxing)
 .stab          0x000000000000c444      0x378 contiki-z1.a(leds-arch.o)
                                        0x6e4 (size before relaxing)
 .stab          0x000000000000c7bc      0x3b4 contiki-z1.a(rtimer-arch.o)
                                        0x720 (size before relaxing)
 .stab          0x000000000000cb70      0x834 contiki-z1.a(ctimer.o)
                                        0xbb8 (size before relaxing)
 .stab          0x000000000000d3a4      0x294 contiki-z1.a(autostart.o)
                                        0x54c (size before relaxing)
 .stab          0x000000000000d638      0x48c contiki-z1.a(energest.o)
                                        0x72c (size before relaxing)
 .stab          0x000000000000dac4      0xa80 contiki-z1.a(etimer.o)
                                        0xd68 (size before relaxing)
 .stab          0x000000000000e544      0xb94 contiki-z1.a(process.o)
                                       0x1044 (size before relaxing)
 .stab          0x000000000000f0d8      0x3cc contiki-z1.a(rtimer.o)
                                        0x6cc (size before relaxing)
 .stab          0x000000000000f4a4      0x348 contiki-z1.a(timer.o)
                                        0x5a0 (size before relaxing)
 .stab          0x000000000000f7ec      0x7bc contiki-z1.a(list.o)
                                        0x7c8 (size before relaxing)
 .stab          0x000000000000ffa8      0x21c contiki-z1.a(random.o)
                                        0x630 (size before relaxing)
 .stab          0x00000000000101c4      0xcd8 contiki-z1.a(uip-icmp6.o)
                                       0x1908 (size before relaxing)
 .stab          0x0000000000010e9c     0x1428 contiki-z1.a(uip-ds6.o)
                                       0x210c (size before relaxing)
 .stab          0x00000000000122c4     0x1320 contiki-z1.a(uip-ds6-route.o)
                                       0x1f50 (size before relaxing)
 .stab          0x00000000000135e4     0x2ba4 contiki-z1.a(uip6.o)
                                       0x39b4 (size before relaxing)
 .stab          0x0000000000016188      0xce4 contiki-z1.a(uip-ds6-nbr.o)
                                       0x15cc (size before relaxing)
 .stab          0x0000000000016e6c      0x78c contiki-z1.a(uip-nd6.o)
                                       0x1410 (size before relaxing)
 .stab          0x00000000000175f8     0x2b44 contiki-z1.a(sicslowpan.o)
                                       0x3564 (size before relaxing)
 .stab          0x000000000001a13c      0x42c contiki-z1.a(uip-udp-packet.)
                                        0xc48 (size before relaxing)
 .stab          0x000000000001a568     0x11f4 contiki-z1.a(tcpip.o)
                                       0x2544 (size before relaxing)
 .stab          0x000000000001b75c      0x3d8 contiki-z1.a(uip-debug.o)
                                        0xbc4 (size before relaxing)
 .stab          0x000000000001bb34      0xf84 contiki-z1.a(rpl-timers.o)
                                       0x1d70 (size before relaxing)
 .stab          0x000000000001cab8      0xa44 contiki-z1.a(rpl-ext-header.)
                                       0x186c (size before relaxing)
 .stab          0x000000000001d4fc      0xb64 contiki-z1.a(rpl.o)
                                       0x1998 (size before relaxing)
 .stab          0x000000000001e060     0x3678 contiki-z1.a(rpl-dag.o)
                                       0x4344 (size before relaxing)
 .stab          0x00000000000216d8      0xa80 contiki-z1.a(queuebuf.o)
                                       0x1bb4 (size before relaxing)
 .stab          0x0000000000022158     0x10f8 contiki-z1.a(nbr-table.o)
                                       0x1a7c (size before relaxing)
 .stab          0x0000000000023250      0xc9c contiki-z1.a(packetbuf.o)
                                       0x1de8 (size before relaxing)
 .stab          0x0000000000023eec      0x2ac contiki-z1.a(linkaddr.o)
                                        0x6c0 (size before relaxing)
 .stab          0x0000000000024198      0x7bc contiki-z1.a(link-stats.o)
                                       0x11a0 (size before relaxing)
 .stab          0x0000000000024954      0x900 contiki-z1.a(framer-802154.o)
                                        0xf24 (size before relaxing)
 .stab          0x0000000000025254     0x1134 contiki-z1.a(csma.o)
                                       0x1674 (size before relaxing)
 .stab          0x0000000000026388     0x117c contiki-z1.a(frame802154.o)
                                       0x1980 (size before relaxing)
 .stab          0x0000000000027504      0x1f8 contiki-z1.a(mac.o)
                                        0x504 (size before relaxing)
 .stab          0x00000000000276fc      0x948 contiki-z1.a(nullrdc.o)
                                       0x12a8 (size before relaxing)
 .stab          0x0000000000028044      0x39c contiki-z1.a(nullsec.o)
                                        0xce4 (size before relaxing)
 .stab          0x00000000000283e0      0x84c contiki-z1.a(i2cmaster.o)
                                        0xbb8 (size before relaxing)
 .stab          0x0000000000028c2c      0x468 contiki-z1.a(button-sensor.o)
                                        0x7ec (size before relaxing)
 .stab          0x0000000000029094      0x3b4 contiki-z1.a(stimer.o)
                                        0x60c (size before relaxing)
 .stab          0x0000000000029448      0x5c4 contiki-z1.a(memb.o)
                                        0xb10 (size before relaxing)
 .stab          0x0000000000029a0c      0x96c contiki-z1.a(rpl-nbr-policy.)
                                       0x1740 (size before relaxing)
 .stab          0x000000000002a378      0x9d8 contiki-z1.a(rpl-mrhof.o)
                                       0x17d0 (size before relaxing)
 .stab          0x000000000002ad50      0x690 contiki-z1.a(mac-sequence.o)
                                       0x17dc (size before relaxing)

.stabstr        0x0000000000000000    0x1f00e
 *(.stabstr)
 .stabstr       0x0000000000000000    0x1f00e udp-malicious-client-controller-aware-version-attack.co

.stab.excl
 *(.stab.excl)

.stab.exclstr
 *(.stab.exclstr)

.stab.index
 *(.stab.index)

.stab.indexstr
 *(.stab.indexstr)

.comment        0x0000000000000000       0x30
 *(.comment)
 .comment       0x0000000000000000       0x30 udp-malicious-client-controller-aware-version-attack.co
                                         0x31 (size before relaxing)
 .comment       0x0000000000000000       0x31 obj_z1/contiki-z1-main.o
 .comment       0x0000000000000000       0x31 contiki-z1.a(contiki-z1-plat)
 .comment       0x0000000000000000       0x31 contiki-z1.a(msp430.o)
 .comment       0x0000000000000000       0x31 contiki-z1.a(leds.o)
 .comment       0x0000000000000000       0x31 contiki-z1.a(watchdog.o)
 .comment       0x0000000000000000       0x31 contiki-z1.a(xmem.o)
 .comment       0x0000000000000000       0x31 contiki-z1.a(spi.o)
 .comment       0x0000000000000000       0x31 contiki-z1.a(cc2420.o)
 .comment       0x0000000000000000       0x31 contiki-z1.a(cc2420-arch.o)
 .comment       0x0000000000000000       0x31 contiki-z1.a(node-id.o)
 .comment       0x0000000000000000       0x31 contiki-z1.a(sensors.o)
 .comment       0x0000000000000000       0x31 contiki-z1.a(uart0.o)
 .comment       0x0000000000000000       0x31 contiki-z1.a(uart0-putchar.o)
 .comment       0x0000000000000000       0x31 contiki-z1.a(z1-sensors.o)
 .comment       0x0000000000000000       0x31 contiki-z1.a(adxl345.o)
 .comment       0x0000000000000000       0x31 contiki-z1.a(tmp102.o)
 .comment       0x0000000000000000       0x31 contiki-z1.a(clock.o)
 .comment       0x0000000000000000       0x31 contiki-z1.a(leds-arch.o)
 .comment       0x0000000000000000       0x31 contiki-z1.a(rtimer-arch.o)
 .comment       0x0000000000000000       0x31 contiki-z1.a(ctimer.o)
 .comment       0x0000000000000000       0x31 contiki-z1.a(autostart.o)
 .comment       0x0000000000000000       0x31 contiki-z1.a(energest.o)
 .comment       0x0000000000000000       0x31 contiki-z1.a(etimer.o)
 .comment       0x0000000000000000       0x31 contiki-z1.a(process.o)
 .comment       0x0000000000000000       0x31 contiki-z1.a(rtimer.o)
 .comment       0x0000000000000000       0x31 contiki-z1.a(timer.o)
 .comment       0x0000000000000000       0x31 contiki-z1.a(list.o)
 .comment       0x0000000000000000       0x31 contiki-z1.a(random.o)
 .comment       0x0000000000000000       0x31 contiki-z1.a(uip-icmp6.o)
 .comment       0x0000000000000000       0x31 contiki-z1.a(uip-ds6.o)
 .comment       0x0000000000000000       0x31 contiki-z1.a(uip-ds6-route.o)
 .comment       0x0000000000000000       0x31 contiki-z1.a(uip6.o)
 .comment       0x0000000000000000       0x31 contiki-z1.a(uip-ds6-nbr.o)
 .comment       0x0000000000000000       0x31 contiki-z1.a(uip-nd6.o)
 .comment       0x0000000000000000       0x31 contiki-z1.a(sicslowpan.o)
 .comment       0x0000000000000000       0x31 contiki-z1.a(uip-udp-packet.)
 .comment       0x0000000000000000       0x31 contiki-z1.a(tcpip.o)
 .comment       0x0000000000000000       0x31 contiki-z1.a(uip-debug.o)
 .comment       0x0000000000000000       0x31 contiki-z1.a(rpl-timers.o)
 .comment       0x0000000000000000       0x31 contiki-z1.a(rpl-ext-header.)
 .comment       0x0000000000000000       0x31 contiki-z1.a(rpl.o)
 .comment       0x0000000000000000       0x31 contiki-z1.a(rpl-dag.o)
 .comment       0x0000000000000000       0x31 contiki-z1.a(queuebuf.o)
 .comment       0x0000000000000000       0x31 contiki-z1.a(nbr-table.o)
 .comment       0x0000000000000000       0x31 contiki-z1.a(packetbuf.o)
 .comment       0x0000000000000000       0x31 contiki-z1.a(linkaddr.o)
 .comment       0x0000000000000000       0x31 contiki-z1.a(link-stats.o)
 .comment       0x0000000000000000       0x31 contiki-z1.a(framer-802154.o)
 .comment       0x0000000000000000       0x31 contiki-z1.a(csma.o)
 .comment       0x0000000000000000       0x31 contiki-z1.a(frame802154.o)
 .comment       0x0000000000000000       0x31 contiki-z1.a(mac.o)
 .comment       0x0000000000000000       0x31 contiki-z1.a(nullrdc.o)
 .comment       0x0000000000000000       0x31 contiki-z1.a(nullsec.o)
 .comment       0x0000000000000000       0x31 contiki-z1.a(i2cmaster.o)
 .comment       0x0000000000000000       0x31 contiki-z1.a(button-sensor.o)
 .comment       0x0000000000000000       0x31 contiki-z1.a(stimer.o)
 .comment       0x0000000000000000       0x31 contiki-z1.a(memb.o)
 .comment       0x0000000000000000       0x31 contiki-z1.a(rpl-nbr-policy.)
 .comment       0x0000000000000000       0x31 contiki-z1.a(rpl-mrhof.o)
 .comment       0x0000000000000000       0x31 contiki-z1.a(mac-sequence.o)
 .comment       0x0000000000000000       0x31 /opt/msp430-47-expr/bin/../lib/gcc/msp430/4.7.0/../../../../msp430/lib/mcpu-430x/mmpy-16/msr20/mc20/libc.a(printf.o)
 .comment       0x0000000000000000       0x31 /opt/msp430-47-expr/bin/../lib/gcc/msp430/4.7.0/../../../../msp430/lib/mcpu-430x/mmpy-16/msr20/mc20/libc.a(sprintf.o)
 .comment       0x0000000000000000       0x31 /opt/msp430-47-expr/bin/../lib/gcc/msp430/4.7.0/../../../../msp430/lib/mcpu-430x/mmpy-16/msr20/mc20/libc.a(vuprintf.o)
 .comment       0x0000000000000000       0x31 /opt/msp430-47-expr/bin/../lib/gcc/msp430/4.7.0/../../../../msp430/lib/mcpu-430x/mmpy-16/msr20/mc20/libc.a(puts.o)
 .comment       0x0000000000000000       0x31 /opt/msp430-47-expr/bin/../lib/gcc/msp430/4.7.0/../../../../msp430/lib/mcpu-430x/mmpy-16/msr20/mc20/libc.a(rand.o)
 .comment       0x0000000000000000       0x31 /opt/msp430-47-expr/bin/../lib/gcc/msp430/4.7.0/../../../../msp430/lib/mcpu-430x/mmpy-16/msr20/mc20/libc.a(memcmp.o)
 .comment       0x0000000000000000       0x31 /opt/msp430-47-expr/bin/../lib/gcc/msp430/4.7.0/../../../../msp430/lib/mcpu-430x/mmpy-16/msr20/mc20/libc.a(strcpy.o)
 .comment       0x0000000000000000       0x31 /opt/msp430-47-expr/bin/../lib/gcc/msp430/4.7.0/../../../../msp430/lib/mcpu-430x/mmpy-16/msr20/mc20/libc.a(memcpy.o)
 .comment       0x0000000000000000       0x31 /opt/msp430-47-expr/bin/../lib/gcc/msp430/4.7.0/../../../../msp430/lib/mcpu-430x/mmpy-16/msr20/mc20/libc.a(memmove.o)
 .comment       0x0000000000000000       0x31 /opt/msp430-47-expr/bin/../lib/gcc/msp430/4.7.0/../../../../msp430/lib/mcpu-430x/mmpy-16/msr20/mc20/libc.a(memset.o)
 .comment       0x0000000000000000       0x31 /opt/msp430-47-expr/bin/../lib/gcc/msp430/4.7.0/../../../../msp430/lib/mcpu-430x/mmpy-16/msr20/mc20/libc.a(strcat.o)

.debug
 *(.debug)

.line
 *(.line)

.debug_srcinfo
 *(.debug_srcinfo)

.debug_sfnames
 *(.debug_sfnames)

.debug_aranges  0x0000000000000000      0x348
 *(.debug_aranges)
 .debug_aranges
                0x0000000000000000       0x20 /opt/msp430-47-expr/bin/../lib/gcc/msp430/4.7.0/mcpu-430x/mmpy-16/msr20/mc20/crt0ivtbl32.o
 .debug_aranges
                0x0000000000000020       0x20 /opt/msp430-47-expr/bin/../lib/gcc/msp430/4.7.0/mcpu-430x/mmpy-16/msr20/mc20/libgcc.a(_mulsi3.o)
 .debug_aranges
                0x0000000000000040       0x20 /opt/msp430-47-expr/bin/../lib/gcc/msp430/4.7.0/mcpu-430x/mmpy-16/msr20/mc20/libgcc.a(_udivmod16.o)
 .debug_aranges
                0x0000000000000060       0x20 /opt/msp430-47-expr/bin/../lib/gcc/msp430/4.7.0/mcpu-430x/mmpy-16/msr20/mc20/libgcc.a(_divmod16.o)
 .debug_aranges
                0x0000000000000080       0x20 /opt/msp430-47-expr/bin/../lib/gcc/msp430/4.7.0/mcpu-430x/mmpy-16/msr20/mc20/libgcc.a(_udivmod32.o)
 .debug_aranges
                0x00000000000000a0       0x20 /opt/msp430-47-expr/bin/../lib/gcc/msp430/4.7.0/mcpu-430x/mmpy-16/msr20/mc20/libgcc.a(_divmod32.o)
 .debug_aranges
                0x00000000000000c0       0x28 /opt/msp430-47-expr/bin/../lib/gcc/msp430/4.7.0/../../../../msp430/lib/mcpu-430x/mmpy-16/msr20/mc20/libc.a(printf.o)
 .debug_aranges
                0x00000000000000e8       0x48 /opt/msp430-47-expr/bin/../lib/gcc/msp430/4.7.0/../../../../msp430/lib/mcpu-430x/mmpy-16/msr20/mc20/libc.a(sprintf.o)
 .debug_aranges
                0x0000000000000130       0x28 /opt/msp430-47-expr/bin/../lib/gcc/msp430/4.7.0/../../../../msp430/lib/mcpu-430x/mmpy-16/msr20/mc20/libc.a(vuprintf.o)
 .debug_aranges
                0x0000000000000158       0x20 /opt/msp430-47-expr/bin/../lib/gcc/msp430/4.7.0/../../../../msp430/lib/mcpu-430x/mmpy-16/msr20/mc20/libc.a(puts.o)
 .debug_aranges
                0x0000000000000178       0x30 /opt/msp430-47-expr/bin/../lib/gcc/msp430/4.7.0/../../../../msp430/lib/mcpu-430x/mmpy-16/msr20/mc20/libc.a(rand.o)
 .debug_aranges
                0x00000000000001a8       0x20 /opt/msp430-47-expr/bin/../lib/gcc/msp430/4.7.0/../../../../msp430/lib/mcpu-430x/mmpy-16/msr20/mc20/libc.a(memcmp.o)
 .debug_aranges
                0x00000000000001c8       0x20 /opt/msp430-47-expr/bin/../lib/gcc/msp430/4.7.0/../../../../msp430/lib/mcpu-430x/mmpy-16/msr20/mc20/libc.a(strcpy.o)
 .debug_aranges
                0x00000000000001e8       0x20 /opt/msp430-47-expr/bin/../lib/gcc/msp430/4.7.0/../../../../msp430/lib/mcpu-430x/mmpy-16/msr20/mc20/libc.a(memcpy.o)
 .debug_aranges
                0x0000000000000208       0x20 /opt/msp430-47-expr/bin/../lib/gcc/msp430/4.7.0/../../../../msp430/lib/mcpu-430x/mmpy-16/msr20/mc20/libc.a(memmove.o)
 .debug_aranges
                0x0000000000000228       0x20 /opt/msp430-47-expr/bin/../lib/gcc/msp430/4.7.0/../../../../msp430/lib/mcpu-430x/mmpy-16/msr20/mc20/libc.a(memset.o)
 .debug_aranges
                0x0000000000000248       0x20 /opt/msp430-47-expr/bin/../lib/gcc/msp430/4.7.0/../../../../msp430/lib/mcpu-430x/mmpy-16/msr20/mc20/libc.a(strcat.o)
 .debug_aranges
                0x0000000000000268       0x20 /opt/msp430-47-expr/bin/../lib/gcc/msp430/4.7.0/mcpu-430x/mmpy-16/msr20/mc20/libgcc.a(_udivmod64.o)
 .debug_aranges
                0x0000000000000288       0x20 /opt/msp430-47-expr/bin/../lib/gcc/msp430/4.7.0/mcpu-430x/mmpy-16/msr20/mc20/libcrt0.a(__watchdog_support.o)
 .debug_aranges
                0x00000000000002a8       0x20 /opt/msp430-47-expr/bin/../lib/gcc/msp430/4.7.0/mcpu-430x/mmpy-16/msr20/mc20/libcrt0.a(__init_stack.o)
 .debug_aranges
                0x00000000000002c8       0x20 /opt/msp430-47-expr/bin/../lib/gcc/msp430/4.7.0/mcpu-430x/mmpy-16/msr20/mc20/libcrt0.a(_copy_data.o)
 .debug_aranges
                0x00000000000002e8       0x20 /opt/msp430-47-expr/bin/../lib/gcc/msp430/4.7.0/mcpu-430x/mmpy-16/msr20/mc20/libcrt0.a(_clear_bss.o)
 .debug_aranges
                0x0000000000000308       0x20 /opt/msp430-47-expr/bin/../lib/gcc/msp430/4.7.0/mcpu-430x/mmpy-16/msr20/mc20/libcrt0.a(_endless_loop__.o)
 .debug_aranges
                0x0000000000000328       0x20 /opt/msp430-47-expr/bin/../lib/gcc/msp430/4.7.0/mcpu-430x/mmpy-16/msr20/mc20/libcrt0.a(_unexpected_.o)

.debug_pubnames
 *(.debug_pubnames)

.debug_info     0x0000000000000000     0x1e5e
 *(.debug_info)
 .debug_info    0x0000000000000000       0xd0 /opt/msp430-47-expr/bin/../lib/gcc/msp430/4.7.0/mcpu-430x/mmpy-16/msr20/mc20/crt0ivtbl32.o
 .debug_info    0x00000000000000d0       0xcd /opt/msp430-47-expr/bin/../lib/gcc/msp430/4.7.0/mcpu-430x/mmpy-16/msr20/mc20/libgcc.a(_mulsi3.o)
 .debug_info    0x000000000000019d       0xcd /opt/msp430-47-expr/bin/../lib/gcc/msp430/4.7.0/mcpu-430x/mmpy-16/msr20/mc20/libgcc.a(_udivmod16.o)
 .debug_info    0x000000000000026a       0xcd /opt/msp430-47-expr/bin/../lib/gcc/msp430/4.7.0/mcpu-430x/mmpy-16/msr20/mc20/libgcc.a(_divmod16.o)
 .debug_info    0x0000000000000337       0xcd /opt/msp430-47-expr/bin/../lib/gcc/msp430/4.7.0/mcpu-430x/mmpy-16/msr20/mc20/libgcc.a(_udivmod32.o)
 .debug_info    0x0000000000000404       0xcd /opt/msp430-47-expr/bin/../lib/gcc/msp430/4.7.0/mcpu-430x/mmpy-16/msr20/mc20/libgcc.a(_divmod32.o)
 .debug_info    0x00000000000004d1      0x18d /opt/msp430-47-expr/bin/../lib/gcc/msp430/4.7.0/../../../../msp430/lib/mcpu-430x/mmpy-16/msr20/mc20/libc.a(printf.o)
 .debug_info    0x000000000000065e      0x352 /opt/msp430-47-expr/bin/../lib/gcc/msp430/4.7.0/../../../../msp430/lib/mcpu-430x/mmpy-16/msr20/mc20/libc.a(sprintf.o)
 .debug_info    0x00000000000009b0      0x673 /opt/msp430-47-expr/bin/../lib/gcc/msp430/4.7.0/../../../../msp430/lib/mcpu-430x/mmpy-16/msr20/mc20/libc.a(vuprintf.o)
 .debug_info    0x0000000000001023       0xe1 /opt/msp430-47-expr/bin/../lib/gcc/msp430/4.7.0/../../../../msp430/lib/mcpu-430x/mmpy-16/msr20/mc20/libc.a(puts.o)
 .debug_info    0x0000000000001104      0x172 /opt/msp430-47-expr/bin/../lib/gcc/msp430/4.7.0/../../../../msp430/lib/mcpu-430x/mmpy-16/msr20/mc20/libc.a(rand.o)
 .debug_info    0x0000000000001276       0xff /opt/msp430-47-expr/bin/../lib/gcc/msp430/4.7.0/../../../../msp430/lib/mcpu-430x/mmpy-16/msr20/mc20/libc.a(memcmp.o)
 .debug_info    0x0000000000001375       0xd3 /opt/msp430-47-expr/bin/../lib/gcc/msp430/4.7.0/../../../../msp430/lib/mcpu-430x/mmpy-16/msr20/mc20/libc.a(strcpy.o)
 .debug_info    0x0000000000001448      0x144 /opt/msp430-47-expr/bin/../lib/gcc/msp430/4.7.0/../../../../msp430/lib/mcpu-430x/mmpy-16/msr20/mc20/libc.a(memcpy.o)
 .debug_info    0x000000000000158c      0x144 /opt/msp430-47-expr/bin/../lib/gcc/msp430/4.7.0/../../../../msp430/lib/mcpu-430x/mmpy-16/msr20/mc20/libc.a(memmove.o)
 .debug_info    0x00000000000016d0      0x12d /opt/msp430-47-expr/bin/../lib/gcc/msp430/4.7.0/../../../../msp430/lib/mcpu-430x/mmpy-16/msr20/mc20/libc.a(memset.o)
 .debug_info    0x00000000000017fd       0xd2 /opt/msp430-47-expr/bin/../lib/gcc/msp430/4.7.0/../../../../msp430/lib/mcpu-430x/mmpy-16/msr20/mc20/libc.a(strcat.o)
 .debug_info    0x00000000000018cf       0xcd /opt/msp430-47-expr/bin/../lib/gcc/msp430/4.7.0/mcpu-430x/mmpy-16/msr20/mc20/libgcc.a(_udivmod64.o)
 .debug_info    0x000000000000199c       0xcb /opt/msp430-47-expr/bin/../lib/gcc/msp430/4.7.0/mcpu-430x/mmpy-16/msr20/mc20/libcrt0.a(__watchdog_support.o)
 .debug_info    0x0000000000001a67       0xcb /opt/msp430-47-expr/bin/../lib/gcc/msp430/4.7.0/mcpu-430x/mmpy-16/msr20/mc20/libcrt0.a(__init_stack.o)
 .debug_info    0x0000000000001b32       0xcb /opt/msp430-47-expr/bin/../lib/gcc/msp430/4.7.0/mcpu-430x/mmpy-16/msr20/mc20/libcrt0.a(_copy_data.o)
 .debug_info    0x0000000000001bfd       0xcb /opt/msp430-47-expr/bin/../lib/gcc/msp430/4.7.0/mcpu-430x/mmpy-16/msr20/mc20/libcrt0.a(_clear_bss.o)
 .debug_info    0x0000000000001cc8       0xcb /opt/msp430-47-expr/bin/../lib/gcc/msp430/4.7.0/mcpu-430x/mmpy-16/msr20/mc20/libcrt0.a(_endless_loop__.o)
 .debug_info    0x0000000000001d93       0xcb /opt/msp430-47-expr/bin/../lib/gcc/msp430/4.7.0/mcpu-430x/mmpy-16/msr20/mc20/libcrt0.a(_unexpected_.o)
 *(.gnu.linkonce.wi.*)

.debug_abbrev   0x0000000000000000      0xac1
 *(.debug_abbrev)
 .debug_abbrev  0x0000000000000000       0x14 /opt/msp430-47-expr/bin/../lib/gcc/msp430/4.7.0/mcpu-430x/mmpy-16/msr20/mc20/crt0ivtbl32.o
 .debug_abbrev  0x0000000000000014       0x14 /opt/msp430-47-expr/bin/../lib/gcc/msp430/4.7.0/mcpu-430x/mmpy-16/msr20/mc20/libgcc.a(_mulsi3.o)
 .debug_abbrev  0x0000000000000028       0x14 /opt/msp430-47-expr/bin/../lib/gcc/msp430/4.7.0/mcpu-430x/mmpy-16/msr20/mc20/libgcc.a(_udivmod16.o)
 .debug_abbrev  0x000000000000003c       0x14 /opt/msp430-47-expr/bin/../lib/gcc/msp430/4.7.0/mcpu-430x/mmpy-16/msr20/mc20/libgcc.a(_divmod16.o)
 .debug_abbrev  0x0000000000000050       0x14 /opt/msp430-47-expr/bin/../lib/gcc/msp430/4.7.0/mcpu-430x/mmpy-16/msr20/mc20/libgcc.a(_udivmod32.o)
 .debug_abbrev  0x0000000000000064       0x14 /opt/msp430-47-expr/bin/../lib/gcc/msp430/4.7.0/mcpu-430x/mmpy-16/msr20/mc20/libgcc.a(_divmod32.o)
 .debug_abbrev  0x0000000000000078       0xfa /opt/msp430-47-expr/bin/../lib/gcc/msp430/4.7.0/../../../../msp430/lib/mcpu-430x/mmpy-16/msr20/mc20/libc.a(printf.o)
 .debug_abbrev  0x0000000000000172      0x14c /opt/msp430-47-expr/bin/../lib/gcc/msp430/4.7.0/../../../../msp430/lib/mcpu-430x/mmpy-16/msr20/mc20/libc.a(sprintf.o)
 .debug_abbrev  0x00000000000002be      0x23e /opt/msp430-47-expr/bin/../lib/gcc/msp430/4.7.0/../../../../msp430/lib/mcpu-430x/mmpy-16/msr20/mc20/libc.a(vuprintf.o)
 .debug_abbrev  0x00000000000004fc       0xa3 /opt/msp430-47-expr/bin/../lib/gcc/msp430/4.7.0/../../../../msp430/lib/mcpu-430x/mmpy-16/msr20/mc20/libc.a(puts.o)
 .debug_abbrev  0x000000000000059f       0xfb /opt/msp430-47-expr/bin/../lib/gcc/msp430/4.7.0/../../../../msp430/lib/mcpu-430x/mmpy-16/msr20/mc20/libc.a(rand.o)
 .debug_abbrev  0x000000000000069a       0x9e /opt/msp430-47-expr/bin/../lib/gcc/msp430/4.7.0/../../../../msp430/lib/mcpu-430x/mmpy-16/msr20/mc20/libc.a(memcmp.o)
 .debug_abbrev  0x0000000000000738       0x83 /opt/msp430-47-expr/bin/../lib/gcc/msp430/4.7.0/../../../../msp430/lib/mcpu-430x/mmpy-16/msr20/mc20/libc.a(strcpy.o)
 .debug_abbrev  0x00000000000007bb       0xab /opt/msp430-47-expr/bin/../lib/gcc/msp430/4.7.0/../../../../msp430/lib/mcpu-430x/mmpy-16/msr20/mc20/libc.a(memcpy.o)
 .debug_abbrev  0x0000000000000866       0xab /opt/msp430-47-expr/bin/../lib/gcc/msp430/4.7.0/../../../../msp430/lib/mcpu-430x/mmpy-16/msr20/mc20/libc.a(memmove.o)
 .debug_abbrev  0x0000000000000911       0xa1 /opt/msp430-47-expr/bin/../lib/gcc/msp430/4.7.0/../../../../msp430/lib/mcpu-430x/mmpy-16/msr20/mc20/libc.a(memset.o)
 .debug_abbrev  0x00000000000009b2       0x83 /opt/msp430-47-expr/bin/../lib/gcc/msp430/4.7.0/../../../../msp430/lib/mcpu-430x/mmpy-16/msr20/mc20/libc.a(strcat.o)
 .debug_abbrev  0x0000000000000a35       0x14 /opt/msp430-47-expr/bin/../lib/gcc/msp430/4.7.0/mcpu-430x/mmpy-16/msr20/mc20/libgcc.a(_udivmod64.o)
 .debug_abbrev  0x0000000000000a49       0x14 /opt/msp430-47-expr/bin/../lib/gcc/msp430/4.7.0/mcpu-430x/mmpy-16/msr20/mc20/libcrt0.a(__watchdog_support.o)
 .debug_abbrev  0x0000000000000a5d       0x14 /opt/msp430-47-expr/bin/../lib/gcc/msp430/4.7.0/mcpu-430x/mmpy-16/msr20/mc20/libcrt0.a(__init_stack.o)
 .debug_abbrev  0x0000000000000a71       0x14 /opt/msp430-47-expr/bin/../lib/gcc/msp430/4.7.0/mcpu-430x/mmpy-16/msr20/mc20/libcrt0.a(_copy_data.o)
 .debug_abbrev  0x0000000000000a85       0x14 /opt/msp430-47-expr/bin/../lib/gcc/msp430/4.7.0/mcpu-430x/mmpy-16/msr20/mc20/libcrt0.a(_clear_bss.o)
 .debug_abbrev  0x0000000000000a99       0x14 /opt/msp430-47-expr/bin/../lib/gcc/msp430/4.7.0/mcpu-430x/mmpy-16/msr20/mc20/libcrt0.a(_endless_loop__.o)
 .debug_abbrev  0x0000000000000aad       0x14 /opt/msp430-47-expr/bin/../lib/gcc/msp430/4.7.0/mcpu-430x/mmpy-16/msr20/mc20/libcrt0.a(_unexpected_.o)

.debug_line     0x0000000000000000     0x11c0
 *(.debug_line)
 .debug_line    0x0000000000000000       0x65 /opt/msp430-47-expr/bin/../lib/gcc/msp430/4.7.0/mcpu-430x/mmpy-16/msr20/mc20/crt0ivtbl32.o
 .debug_line    0x0000000000000065       0x75 /opt/msp430-47-expr/bin/../lib/gcc/msp430/4.7.0/mcpu-430x/mmpy-16/msr20/mc20/libgcc.a(_mulsi3.o)
 .debug_line    0x00000000000000da       0x71 /opt/msp430-47-expr/bin/../lib/gcc/msp430/4.7.0/mcpu-430x/mmpy-16/msr20/mc20/libgcc.a(_udivmod16.o)
 .debug_line    0x000000000000014b       0x7c /opt/msp430-47-expr/bin/../lib/gcc/msp430/4.7.0/mcpu-430x/mmpy-16/msr20/mc20/libgcc.a(_divmod16.o)
 .debug_line    0x00000000000001c7       0x7c /opt/msp430-47-expr/bin/../lib/gcc/msp430/4.7.0/mcpu-430x/mmpy-16/msr20/mc20/libgcc.a(_udivmod32.o)
 .debug_line    0x0000000000000243       0x85 /opt/msp430-47-expr/bin/../lib/gcc/msp430/4.7.0/mcpu-430x/mmpy-16/msr20/mc20/libgcc.a(_divmod32.o)
 .debug_line    0x00000000000002c8       0xe8 /opt/msp430-47-expr/bin/../lib/gcc/msp430/4.7.0/../../../../msp430/lib/mcpu-430x/mmpy-16/msr20/mc20/libc.a(printf.o)
 .debug_line    0x00000000000003b0      0x14e /opt/msp430-47-expr/bin/../lib/gcc/msp430/4.7.0/../../../../msp430/lib/mcpu-430x/mmpy-16/msr20/mc20/libc.a(sprintf.o)
 .debug_line    0x00000000000004fe      0x397 /opt/msp430-47-expr/bin/../lib/gcc/msp430/4.7.0/../../../../msp430/lib/mcpu-430x/mmpy-16/msr20/mc20/libc.a(vuprintf.o)
 .debug_line    0x0000000000000895       0x67 /opt/msp430-47-expr/bin/../lib/gcc/msp430/4.7.0/../../../../msp430/lib/mcpu-430x/mmpy-16/msr20/mc20/libc.a(puts.o)
 .debug_line    0x00000000000008fc       0x6e /opt/msp430-47-expr/bin/../lib/gcc/msp430/4.7.0/../../../../msp430/lib/mcpu-430x/mmpy-16/msr20/mc20/libc.a(rand.o)
 .debug_line    0x000000000000096a       0xcc /opt/msp430-47-expr/bin/../lib/gcc/msp430/4.7.0/../../../../msp430/lib/mcpu-430x/mmpy-16/msr20/mc20/libc.a(memcmp.o)
 .debug_line    0x0000000000000a36       0x4f /opt/msp430-47-expr/bin/../lib/gcc/msp430/4.7.0/../../../../msp430/lib/mcpu-430x/mmpy-16/msr20/mc20/libc.a(strcpy.o)
 .debug_line    0x0000000000000a85      0x155 /opt/msp430-47-expr/bin/../lib/gcc/msp430/4.7.0/../../../../msp430/lib/mcpu-430x/mmpy-16/msr20/mc20/libc.a(memcpy.o)
 .debug_line    0x0000000000000bda      0x154 /opt/msp430-47-expr/bin/../lib/gcc/msp430/4.7.0/../../../../msp430/lib/mcpu-430x/mmpy-16/msr20/mc20/libc.a(memmove.o)
 .debug_line    0x0000000000000d2e      0x12f /opt/msp430-47-expr/bin/../lib/gcc/msp430/4.7.0/../../../../msp430/lib/mcpu-430x/mmpy-16/msr20/mc20/libc.a(memset.o)
 .debug_line    0x0000000000000e5d       0x54 /opt/msp430-47-expr/bin/../lib/gcc/msp430/4.7.0/../../../../msp430/lib/mcpu-430x/mmpy-16/msr20/mc20/libc.a(strcat.o)
 .debug_line    0x0000000000000eb1       0xba /opt/msp430-47-expr/bin/../lib/gcc/msp430/4.7.0/mcpu-430x/mmpy-16/msr20/mc20/libgcc.a(_udivmod64.o)
 .debug_line    0x0000000000000f6b       0x63 /opt/msp430-47-expr/bin/../lib/gcc/msp430/4.7.0/mcpu-430x/mmpy-16/msr20/mc20/libcrt0.a(__watchdog_support.o)
 .debug_line    0x0000000000000fce       0x61 /opt/msp430-47-expr/bin/../lib/gcc/msp430/4.7.0/mcpu-430x/mmpy-16/msr20/mc20/libcrt0.a(__init_stack.o)
 .debug_line    0x000000000000102f       0x67 /opt/msp430-47-expr/bin/../lib/gcc/msp430/4.7.0/mcpu-430x/mmpy-16/msr20/mc20/libcrt0.a(_copy_data.o)
 .debug_line    0x0000000000001096       0x67 /opt/msp430-47-expr/bin/../lib/gcc/msp430/4.7.0/mcpu-430x/mmpy-16/msr20/mc20/libcrt0.a(_clear_bss.o)
 .debug_line    0x00000000000010fd       0x62 /opt/msp430-47-expr/bin/../lib/gcc/msp430/4.7.0/mcpu-430x/mmpy-16/msr20/mc20/libcrt0.a(_endless_loop__.o)
 .debug_line    0x000000000000115f       0x61 /opt/msp430-47-expr/bin/../lib/gcc/msp430/4.7.0/mcpu-430x/mmpy-16/msr20/mc20/libcrt0.a(_unexpected_.o)

.debug_frame    0x0000000000000000      0x2b8
 *(.debug_frame)
 .debug_frame   0x0000000000000000       0x34 /opt/msp430-47-expr/bin/../lib/gcc/msp430/4.7.0/../../../../msp430/lib/mcpu-430x/mmpy-16/msr20/mc20/libc.a(printf.o)
 .debug_frame   0x0000000000000034       0x80 /opt/msp430-47-expr/bin/../lib/gcc/msp430/4.7.0/../../../../msp430/lib/mcpu-430x/mmpy-16/msr20/mc20/libc.a(sprintf.o)
 .debug_frame   0x00000000000000b4       0x88 /opt/msp430-47-expr/bin/../lib/gcc/msp430/4.7.0/../../../../msp430/lib/mcpu-430x/mmpy-16/msr20/mc20/libc.a(vuprintf.o)
 .debug_frame   0x000000000000013c       0x2c /opt/msp430-47-expr/bin/../lib/gcc/msp430/4.7.0/../../../../msp430/lib/mcpu-430x/mmpy-16/msr20/mc20/libc.a(puts.o)
 .debug_frame   0x0000000000000168       0x4c /opt/msp430-47-expr/bin/../lib/gcc/msp430/4.7.0/../../../../msp430/lib/mcpu-430x/mmpy-16/msr20/mc20/libc.a(rand.o)
 .debug_frame   0x00000000000001b4       0x2c /opt/msp430-47-expr/bin/../lib/gcc/msp430/4.7.0/../../../../msp430/lib/mcpu-430x/mmpy-16/msr20/mc20/libc.a(memcmp.o)
 .debug_frame   0x00000000000001e0       0x24 /opt/msp430-47-expr/bin/../lib/gcc/msp430/4.7.0/../../../../msp430/lib/mcpu-430x/mmpy-16/msr20/mc20/libc.a(strcpy.o)
 .debug_frame   0x0000000000000204       0x30 /opt/msp430-47-expr/bin/../lib/gcc/msp430/4.7.0/../../../../msp430/lib/mcpu-430x/mmpy-16/msr20/mc20/libc.a(memcpy.o)
 .debug_frame   0x0000000000000234       0x30 /opt/msp430-47-expr/bin/../lib/gcc/msp430/4.7.0/../../../../msp430/lib/mcpu-430x/mmpy-16/msr20/mc20/libc.a(memmove.o)
 .debug_frame   0x0000000000000264       0x30 /opt/msp430-47-expr/bin/../lib/gcc/msp430/4.7.0/../../../../msp430/lib/mcpu-430x/mmpy-16/msr20/mc20/libc.a(memset.o)
 .debug_frame   0x0000000000000294       0x24 /opt/msp430-47-expr/bin/../lib/gcc/msp430/4.7.0/../../../../msp430/lib/mcpu-430x/mmpy-16/msr20/mc20/libc.a(strcat.o)

.debug_str      0x0000000000000000      0x4d4
 *(.debug_str)
 .debug_str     0x0000000000000000      0x114 /opt/msp430-47-expr/bin/../lib/gcc/msp430/4.7.0/../../../../msp430/lib/mcpu-430x/mmpy-16/msr20/mc20/libc.a(printf.o)
                                        0x165 (size before relaxing)
 .debug_str     0x0000000000000114       0x75 /opt/msp430-47-expr/bin/../lib/gcc/msp430/4.7.0/../../../../msp430/lib/mcpu-430x/mmpy-16/msr20/mc20/libc.a(sprintf.o)
                                        0x1ca (size before relaxing)
 .debug_str     0x0000000000000189      0x22b /opt/msp430-47-expr/bin/../lib/gcc/msp430/4.7.0/../../../../msp430/lib/mcpu-430x/mmpy-16/msr20/mc20/libc.a(vuprintf.o)
                                        0x3cb (size before relaxing)
 .debug_str     0x00000000000003b4       0x1d /opt/msp430-47-expr/bin/../lib/gcc/msp430/4.7.0/../../../../msp430/lib/mcpu-430x/mmpy-16/msr20/mc20/libc.a(puts.o)
                                        0x12a (size before relaxing)
 .debug_str     0x00000000000003d1       0x2f /opt/msp430-47-expr/bin/../lib/gcc/msp430/4.7.0/../../../../msp430/lib/mcpu-430x/mmpy-16/msr20/mc20/libc.a(rand.o)
                                        0x141 (size before relaxing)
 .debug_str     0x0000000000000400       0x19 /opt/msp430-47-expr/bin/../lib/gcc/msp430/4.7.0/../../../../msp430/lib/mcpu-430x/mmpy-16/msr20/mc20/libc.a(memcmp.o)
                                        0x12d (size before relaxing)
 .debug_str     0x0000000000000419       0x23 /opt/msp430-47-expr/bin/../lib/gcc/msp430/4.7.0/../../../../msp430/lib/mcpu-430x/mmpy-16/msr20/mc20/libc.a(strcpy.o)
                                        0x130 (size before relaxing)
 .debug_str     0x000000000000043c       0x3e /opt/msp430-47-expr/bin/../lib/gcc/msp430/4.7.0/../../../../msp430/lib/mcpu-430x/mmpy-16/msr20/mc20/libc.a(memcpy.o)
                                        0x15b (size before relaxing)
 .debug_str     0x000000000000047a       0x1b /opt/msp430-47-expr/bin/../lib/gcc/msp430/4.7.0/../../../../msp430/lib/mcpu-430x/mmpy-16/msr20/mc20/libc.a(memmove.o)
                                        0x15d (size before relaxing)
 .debug_str     0x0000000000000495       0x26 /opt/msp430-47-expr/bin/../lib/gcc/msp430/4.7.0/../../../../msp430/lib/mcpu-430x/mmpy-16/msr20/mc20/libc.a(memset.o)
                                        0x159 (size before relaxing)
 .debug_str     0x00000000000004bb       0x19 /opt/msp430-47-expr/bin/../lib/gcc/msp430/4.7.0/../../../../msp430/lib/mcpu-430x/mmpy-16/msr20/mc20/libc.a(strcat.o)
                                        0x132 (size before relaxing)

.debug_loc      0x0000000000000000     0x16c2
 *(.debug_loc)
 .debug_loc     0x0000000000000000       0x78 /opt/msp430-47-expr/bin/../lib/gcc/msp430/4.7.0/../../../../msp430/lib/mcpu-430x/mmpy-16/msr20/mc20/libc.a(printf.o)
 .debug_loc     0x0000000000000078      0x1d5 /opt/msp430-47-expr/bin/../lib/gcc/msp430/4.7.0/../../../../msp430/lib/mcpu-430x/mmpy-16/msr20/mc20/libc.a(sprintf.o)
 .debug_loc     0x000000000000024d      0xc0e /opt/msp430-47-expr/bin/../lib/gcc/msp430/4.7.0/../../../../msp430/lib/mcpu-430x/mmpy-16/msr20/mc20/libc.a(vuprintf.o)
 .debug_loc     0x0000000000000e5b       0x3e /opt/msp430-47-expr/bin/../lib/gcc/msp430/4.7.0/../../../../msp430/lib/mcpu-430x/mmpy-16/msr20/mc20/libc.a(puts.o)
 .debug_loc     0x0000000000000e99       0x78 /opt/msp430-47-expr/bin/../lib/gcc/msp430/4.7.0/../../../../msp430/lib/mcpu-430x/mmpy-16/msr20/mc20/libc.a(rand.o)
 .debug_loc     0x0000000000000f11       0x6d /opt/msp430-47-expr/bin/../lib/gcc/msp430/4.7.0/../../../../msp430/lib/mcpu-430x/mmpy-16/msr20/mc20/libc.a(memcmp.o)
 .debug_loc     0x0000000000000f7e       0x3c /opt/msp430-47-expr/bin/../lib/gcc/msp430/4.7.0/../../../../msp430/lib/mcpu-430x/mmpy-16/msr20/mc20/libc.a(strcpy.o)
 .debug_loc     0x0000000000000fba      0x2c3 /opt/msp430-47-expr/bin/../lib/gcc/msp430/4.7.0/../../../../msp430/lib/mcpu-430x/mmpy-16/msr20/mc20/libc.a(memcpy.o)
 .debug_loc     0x000000000000127d      0x2c3 /opt/msp430-47-expr/bin/../lib/gcc/msp430/4.7.0/../../../../msp430/lib/mcpu-430x/mmpy-16/msr20/mc20/libc.a(memmove.o)
 .debug_loc     0x0000000000001540      0x139 /opt/msp430-47-expr/bin/../lib/gcc/msp430/4.7.0/../../../../msp430/lib/mcpu-430x/mmpy-16/msr20/mc20/libc.a(memset.o)
 .debug_loc     0x0000000000001679       0x49 /opt/msp430-47-expr/bin/../lib/gcc/msp430/4.7.0/../../../../msp430/lib/mcpu-430x/mmpy-16/msr20/mc20/libc.a(strcat.o)

.debug_macinfo
 *(.debug_macinfo)

.debug_pubtypes
 *(.debug_pubtypes)

.debug_ranges   0x0000000000000000      0x128
 *(.debug_ranges)
 .debug_ranges  0x0000000000000000       0x18 /opt/msp430-47-expr/bin/../lib/gcc/msp430/4.7.0/../../../../msp430/lib/mcpu-430x/mmpy-16/msr20/mc20/libc.a(printf.o)
 .debug_ranges  0x0000000000000018       0x38 /opt/msp430-47-expr/bin/../lib/gcc/msp430/4.7.0/../../../../msp430/lib/mcpu-430x/mmpy-16/msr20/mc20/libc.a(sprintf.o)
 .debug_ranges  0x0000000000000050       0x48 /opt/msp430-47-expr/bin/../lib/gcc/msp430/4.7.0/../../../../msp430/lib/mcpu-430x/mmpy-16/msr20/mc20/libc.a(vuprintf.o)
 .debug_ranges  0x0000000000000098       0x10 /opt/msp430-47-expr/bin/../lib/gcc/msp430/4.7.0/../../../../msp430/lib/mcpu-430x/mmpy-16/msr20/mc20/libc.a(puts.o)
 .debug_ranges  0x00000000000000a8       0x20 /opt/msp430-47-expr/bin/../lib/gcc/msp430/4.7.0/../../../../msp430/lib/mcpu-430x/mmpy-16/msr20/mc20/libc.a(rand.o)
 .debug_ranges  0x00000000000000c8       0x10 /opt/msp430-47-expr/bin/../lib/gcc/msp430/4.7.0/../../../../msp430/lib/mcpu-430x/mmpy-16/msr20/mc20/libc.a(memcmp.o)
 .debug_ranges  0x00000000000000d8       0x10 /opt/msp430-47-expr/bin/../lib/gcc/msp430/4.7.0/../../../../msp430/lib/mcpu-430x/mmpy-16/msr20/mc20/libc.a(strcpy.o)
 .debug_ranges  0x00000000000000e8       0x10 /opt/msp430-47-expr/bin/../lib/gcc/msp430/4.7.0/../../../../msp430/lib/mcpu-430x/mmpy-16/msr20/mc20/libc.a(memcpy.o)
 .debug_ranges  0x00000000000000f8       0x10 /opt/msp430-47-expr/bin/../lib/gcc/msp430/4.7.0/../../../../msp430/lib/mcpu-430x/mmpy-16/msr20/mc20/libc.a(memmove.o)
 .debug_ranges  0x0000000000000108       0x10 /opt/msp430-47-expr/bin/../lib/gcc/msp430/4.7.0/../../../../msp430/lib/mcpu-430x/mmpy-16/msr20/mc20/libc.a(memset.o)
 .debug_ranges  0x0000000000000118       0x10 /opt/msp430-47-expr/bin/../lib/gcc/msp430/4.7.0/../../../../msp430/lib/mcpu-430x/mmpy-16/msr20/mc20/libc.a(strcat.o)
                0x0000000000003100                PROVIDE (__stack, (ORIGIN (ram) + 0x2000))
                0x000000000000e51e                __data_start_rom = _etext
                0x000000000000e66e                __data_end_rom = (_etext + SIZEOF (.data))
OUTPUT(udp-malicious-client-controller-aware-version-attack.z1 elf32-msp430)

.gnu.attributes
                0x0000000000000000       0x11
 .gnu.attributes
                0x0000000000000000       0x11 /opt/msp430-47-expr/bin/../lib/gcc/msp430/4.7.0/mcpu-430x/mmpy-16/msr20/mc20/crt0ivtbl32.o
 .gnu.attributes
                0x0000000000000011       0x11 udp-malicious-client-controller-aware-version-attack.co
 .gnu.attributes
                0x0000000000000022       0x11 obj_z1/contiki-z1-main.o
 .gnu.attributes
                0x0000000000000033       0x11 contiki-z1.a(contiki-z1-plat)
 .gnu.attributes
                0x0000000000000044       0x11 contiki-z1.a(msp430.o)
 .gnu.attributes
                0x0000000000000055       0x11 contiki-z1.a(leds.o)
 .gnu.attributes
                0x0000000000000066       0x11 contiki-z1.a(watchdog.o)
 .gnu.attributes
                0x0000000000000077       0x11 contiki-z1.a(xmem.o)
 .gnu.attributes
                0x0000000000000088       0x11 contiki-z1.a(spi.o)
 .gnu.attributes
                0x0000000000000099       0x11 contiki-z1.a(cc2420.o)
 .gnu.attributes
                0x00000000000000aa       0x11 contiki-z1.a(cc2420-arch.o)
 .gnu.attributes
                0x00000000000000bb       0x11 contiki-z1.a(node-id.o)
 .gnu.attributes
                0x00000000000000cc       0x11 contiki-z1.a(sensors.o)
 .gnu.attributes
                0x00000000000000dd       0x11 contiki-z1.a(uart0.o)
 .gnu.attributes
                0x00000000000000ee       0x11 contiki-z1.a(uart0-putchar.o)
 .gnu.attributes
                0x00000000000000ff       0x11 contiki-z1.a(z1-sensors.o)
 .gnu.attributes
                0x0000000000000110       0x11 contiki-z1.a(adxl345.o)
 .gnu.attributes
                0x0000000000000121       0x11 contiki-z1.a(tmp102.o)
 .gnu.attributes
                0x0000000000000132       0x11 contiki-z1.a(clock.o)
 .gnu.attributes
                0x0000000000000143       0x11 contiki-z1.a(leds-arch.o)
 .gnu.attributes
                0x0000000000000154       0x11 contiki-z1.a(rtimer-arch.o)
 .gnu.attributes
                0x0000000000000165       0x11 contiki-z1.a(ctimer.o)
 .gnu.attributes
                0x0000000000000176       0x11 contiki-z1.a(autostart.o)
 .gnu.attributes
                0x0000000000000187       0x11 contiki-z1.a(energest.o)
 .gnu.attributes
                0x0000000000000198       0x11 contiki-z1.a(etimer.o)
 .gnu.attributes
                0x00000000000001a9       0x11 contiki-z1.a(process.o)
 .gnu.attributes
                0x00000000000001ba       0x11 contiki-z1.a(rtimer.o)
 .gnu.attributes
                0x00000000000001cb       0x11 contiki-z1.a(timer.o)
 .gnu.attributes
                0x00000000000001dc       0x11 contiki-z1.a(list.o)
 .gnu.attributes
                0x00000000000001ed       0x11 contiki-z1.a(random.o)
 .gnu.attributes
                0x00000000000001fe       0x11 contiki-z1.a(uip-icmp6.o)
 .gnu.attributes
                0x000000000000020f       0x11 contiki-z1.a(uip-ds6.o)
 .gnu.attributes
                0x0000000000000220       0x11 contiki-z1.a(uip-ds6-route.o)
 .gnu.attributes
                0x0000000000000231       0x11 contiki-z1.a(uip6.o)
 .gnu.attributes
                0x0000000000000242       0x11 contiki-z1.a(uip-ds6-nbr.o)
 .gnu.attributes
                0x0000000000000253       0x11 contiki-z1.a(uip-nd6.o)
 .gnu.attributes
                0x0000000000000264       0x11 contiki-z1.a(sicslowpan.o)
 .gnu.attributes
                0x0000000000000275       0x11 contiki-z1.a(uip-udp-packet.)
 .gnu.attributes
                0x0000000000000286       0x11 contiki-z1.a(tcpip.o)
 .gnu.attributes
                0x0000000000000297       0x11 contiki-z1.a(uip-debug.o)
 .gnu.attributes
                0x00000000000002a8       0x11 contiki-z1.a(rpl-timers.o)
 .gnu.attributes
                0x00000000000002b9       0x11 contiki-z1.a(rpl-ext-header.)
 .gnu.attributes
                0x00000000000002ca       0x11 contiki-z1.a(rpl.o)
 .gnu.attributes
                0x00000000000002db       0x11 contiki-z1.a(rpl-dag.o)
 .gnu.attributes
                0x00000000000002ec       0x11 contiki-z1.a(queuebuf.o)
 .gnu.attributes
                0x00000000000002fd       0x11 contiki-z1.a(nbr-table.o)
 .gnu.attributes
                0x000000000000030e       0x11 contiki-z1.a(packetbuf.o)
 .gnu.attributes
                0x000000000000031f       0x11 contiki-z1.a(linkaddr.o)
 .gnu.attributes
                0x0000000000000330       0x11 contiki-z1.a(link-stats.o)
 .gnu.attributes
                0x0000000000000341       0x11 contiki-z1.a(framer-802154.o)
 .gnu.attributes
                0x0000000000000352       0x11 contiki-z1.a(csma.o)
 .gnu.attributes
                0x0000000000000363       0x11 contiki-z1.a(frame802154.o)
 .gnu.attributes
                0x0000000000000374       0x11 contiki-z1.a(mac.o)
 .gnu.attributes
                0x0000000000000385       0x11 contiki-z1.a(nullrdc.o)
 .gnu.attributes
                0x0000000000000396       0x11 contiki-z1.a(nullsec.o)
 .gnu.attributes
                0x00000000000003a7       0x11 contiki-z1.a(i2cmaster.o)
 .gnu.attributes
                0x00000000000003b8       0x11 contiki-z1.a(button-sensor.o)
 .gnu.attributes
                0x00000000000003c9       0x11 contiki-z1.a(stimer.o)
 .gnu.attributes
                0x00000000000003da       0x11 contiki-z1.a(memb.o)
 .gnu.attributes
                0x00000000000003eb       0x11 contiki-z1.a(rpl-nbr-policy.)
 .gnu.attributes
                0x00000000000003fc       0x11 contiki-z1.a(rpl-mrhof.o)
 .gnu.attributes
                0x000000000000040d       0x11 contiki-z1.a(mac-sequence.o)
 .gnu.attributes
                0x000000000000041e       0x11 /opt/msp430-47-expr/bin/../lib/gcc/msp430/4.7.0/mcpu-430x/mmpy-16/msr20/mc20/libgcc.a(_mulsi3.o)
 .gnu.attributes
                0x000000000000042f       0x11 /opt/msp430-47-expr/bin/../lib/gcc/msp430/4.7.0/mcpu-430x/mmpy-16/msr20/mc20/libgcc.a(_udivmod16.o)
 .gnu.attributes
                0x0000000000000440       0x11 /opt/msp430-47-expr/bin/../lib/gcc/msp430/4.7.0/mcpu-430x/mmpy-16/msr20/mc20/libgcc.a(_divmod16.o)
 .gnu.attributes
                0x0000000000000451       0x11 /opt/msp430-47-expr/bin/../lib/gcc/msp430/4.7.0/mcpu-430x/mmpy-16/msr20/mc20/libgcc.a(_udivmod32.o)
 .gnu.attributes
                0x0000000000000462       0x11 /opt/msp430-47-expr/bin/../lib/gcc/msp430/4.7.0/mcpu-430x/mmpy-16/msr20/mc20/libgcc.a(_divmod32.o)
 .gnu.attributes
                0x0000000000000473       0x11 /opt/msp430-47-expr/bin/../lib/gcc/msp430/4.7.0/../../../../msp430/lib/mcpu-430x/mmpy-16/msr20/mc20/libc.a(printf.o)
 .gnu.attributes
                0x0000000000000484       0x11 /opt/msp430-47-expr/bin/../lib/gcc/msp430/4.7.0/../../../../msp430/lib/mcpu-430x/mmpy-16/msr20/mc20/libc.a(sprintf.o)
 .gnu.attributes
                0x0000000000000495       0x11 /opt/msp430-47-expr/bin/../lib/gcc/msp430/4.7.0/../../../../msp430/lib/mcpu-430x/mmpy-16/msr20/mc20/libc.a(vuprintf.o)
 .gnu.attributes
                0x00000000000004a6       0x11 /opt/msp430-47-expr/bin/../lib/gcc/msp430/4.7.0/../../../../msp430/lib/mcpu-430x/mmpy-16/msr20/mc20/libc.a(puts.o)
 .gnu.attributes
                0x00000000000004b7       0x11 /opt/msp430-47-expr/bin/../lib/gcc/msp430/4.7.0/../../../../msp430/lib/mcpu-430x/mmpy-16/msr20/mc20/libc.a(rand.o)
 .gnu.attributes
                0x00000000000004c8       0x11 /opt/msp430-47-expr/bin/../lib/gcc/msp430/4.7.0/../../../../msp430/lib/mcpu-430x/mmpy-16/msr20/mc20/libc.a(memcmp.o)
 .gnu.attributes
                0x00000000000004d9       0x11 /opt/msp430-47-expr/bin/../lib/gcc/msp430/4.7.0/../../../../msp430/lib/mcpu-430x/mmpy-16/msr20/mc20/libc.a(strcpy.o)
 .gnu.attributes
                0x00000000000004ea       0x11 /opt/msp430-47-expr/bin/../lib/gcc/msp430/4.7.0/../../../../msp430/lib/mcpu-430x/mmpy-16/msr20/mc20/libc.a(memcpy.o)
 .gnu.attributes
                0x00000000000004fb       0x11 /opt/msp430-47-expr/bin/../lib/gcc/msp430/4.7.0/../../../../msp430/lib/mcpu-430x/mmpy-16/msr20/mc20/libc.a(memmove.o)
 .gnu.attributes
                0x000000000000050c       0x11 /opt/msp430-47-expr/bin/../lib/gcc/msp430/4.7.0/../../../../msp430/lib/mcpu-430x/mmpy-16/msr20/mc20/libc.a(memset.o)
 .gnu.attributes
                0x000000000000051d       0x11 /opt/msp430-47-expr/bin/../lib/gcc/msp430/4.7.0/../../../../msp430/lib/mcpu-430x/mmpy-16/msr20/mc20/libc.a(strcat.o)
 .gnu.attributes
                0x000000000000052e       0x11 /opt/msp430-47-expr/bin/../lib/gcc/msp430/4.7.0/mcpu-430x/mmpy-16/msr20/mc20/libgcc.a(_udivmod64.o)
 .gnu.attributes
                0x000000000000053f       0x11 /opt/msp430-47-expr/bin/../lib/gcc/msp430/4.7.0/mcpu-430x/mmpy-16/msr20/mc20/libcrt0.a(_reset_vector__.o)
 .gnu.attributes
                0x0000000000000550       0x11 /opt/msp430-47-expr/bin/../lib/gcc/msp430/4.7.0/mcpu-430x/mmpy-16/msr20/mc20/libcrt0.a(__watchdog_support.o)
 .gnu.attributes
                0x0000000000000561       0x11 /opt/msp430-47-expr/bin/../lib/gcc/msp430/4.7.0/mcpu-430x/mmpy-16/msr20/mc20/libcrt0.a(__init_stack.o)
 .gnu.attributes
                0x0000000000000572       0x11 /opt/msp430-47-expr/bin/../lib/gcc/msp430/4.7.0/mcpu-430x/mmpy-16/msr20/mc20/libcrt0.a(__low_level_init.o)
 .gnu.attributes
                0x0000000000000583       0x11 /opt/msp430-47-expr/bin/../lib/gcc/msp430/4.7.0/mcpu-430x/mmpy-16/msr20/mc20/libcrt0.a(_copy_data.o)
 .gnu.attributes
                0x0000000000000594       0x11 /opt/msp430-47-expr/bin/../lib/gcc/msp430/4.7.0/mcpu-430x/mmpy-16/msr20/mc20/libcrt0.a(_clear_bss.o)
 .gnu.attributes
                0x00000000000005a5       0x11 /opt/msp430-47-expr/bin/../lib/gcc/msp430/4.7.0/mcpu-430x/mmpy-16/msr20/mc20/libcrt0.a(__stop_progExec__.o)
 .gnu.attributes
                0x00000000000005b6       0x11 /opt/msp430-47-expr/bin/../lib/gcc/msp430/4.7.0/mcpu-430x/mmpy-16/msr20/mc20/libcrt0.a(_endless_loop__.o)
 .gnu.attributes
                0x00000000000005c7       0x11 /opt/msp430-47-expr/bin/../lib/gcc/msp430/4.7.0/mcpu-430x/mmpy-16/msr20/mc20/libcrt0.a(_unexpected_.o)
